ccopy_reg
_reconstructor
p0
(cstorage
Storage
p1
c__builtin__
object
p2
Ntp3
Rp4
(dp5
S'_ranks'
p6
NsS'_graph'
p7
(dp8
S'http://udacity.com/cs101x/urank/kathleen.html'
p9
(lp10
sS'http://udacity.com/cs101x/urank/zinc.html'
p11
(lp12
S'http://udacity.com/cs101x/urank/nickel.html'
p13
aS'http://udacity.com/cs101x/urank/arsenic.html'
p14
asS'http://udacity.com/cs101x/urank/hummus.html'
p15
(lp16
sS'http://udacity.com/cs101x/urank/arsenic.html'
p17
(lp18
S'http://udacity.com/cs101x/urank/nickel.html'
p19
asS'http://udacity.com/cs101x/urank/index.html'
p20
(lp21
g15
ag17
ag9
aS'http://udacity.com/cs101x/urank/nickel.html'
p22
ag11
asg22
(lp23
S'http://udacity.com/cs101x/urank/kathleen.html'
p24
assS'_index'
p25
(dp26
S'<body>'
p27
(lp28
g20
ag9
ag17
ag11
ag22
ag15
asS'Chef</a>'
p29
(lp30
g20
asS'<html>'
p31
(lp32
g20
ag9
ag17
ag11
ag22
ag15
asS'Here'
p33
(lp34
g20
asS'tablesppons'
p35
(lp36
g9
asS'to'
p37
(lp38
g9
ag17
ag15
asS'garbonzo'
p39
(lp40
g9
asS'World'
p41
(lp42
g17
asS'Recipe</a>'
p43
(lp44
g20
ag20
asS'it.'
p45
(lp46
g15
asS'them'
p47
(lp48
g9
asS'</html>'
p49
(lp50
g20
ag9
ag17
ag11
ag22
ag15
asS'Hummus'
p51
(lp52
g20
ag9
ag17
ag22
ag15
asS'know'
p53
(lp54
g11
asS'buttercream'
p55
(lp56
g9
asS'recipe!'
p57
(lp58
g22
asS'Recipe'
p59
(lp60
g9
ag17
ag15
asS'blender.'
p61
(lp62
g9
asS'try'
p63
(lp64
g11
asS'<p>'
p65
(lp66
g20
ag9
ag17
ag11
ag11
ag22
ag15
asS'Go'
p67
(lp68
g15
asS'</ul>'
p69
(lp70
g20
asS'opinions,'
p71
(lp72
g20
asS'href="http://udacity.com/cs101x/urank/zinc.html">Zinc'
p73
(lp74
g20
asS'For'
p75
(lp76
g20
ag11
asS'hummus.'
p77
(lp78
g15
asS'hummus,'
p79
(lp80
g11
asS'are'
p81
(lp82
g20
asS'href="http://udacity.com/cs101x/urank/arsenic.html">this'
p83
(lp84
g11
asS'best'
p85
(lp86
g22
asS'out'
p87
(lp88
g20
asS'Nickel'
p89
(lp90
g11
ag22
asS'expert'
p91
(lp92
g20
asS'everything'
p93
(lp94
g11
asS'3'
p95
(lp96
g9
asS'Hummus</a>'
p97
(lp98
g20
asS'</body>'
p99
(lp100
g20
ag9
ag17
ag11
ag22
ag15
asS'learned'
p101
(lp102
g11
asS'sauce.'
p103
(lp104
g9
asS'This'
p105
(lp106
g22
asS'Chef</h1>'
p107
(lp108
g11
ag22
asS'Algorithms</h1>'
p109
(lp110
g20
asS'from'
p111
(lp112
g11
asS'frosting'
p113
(lp114
g9
asS'great'
p115
(lp116
g11
asS'Chef</a>.'
p117
(lp118
g20
ag17
ag11
asS'favorite'
p119
(lp120
g20
asS'hummus'
p121
(lp122
g17
asS'</h1>'
p123
(lp124
g9
ag17
ag15
asS'href="http://udacity.com/cs101x/urank/nickel.html">the'
p125
(lp126
g11
asS'</ol>'
p127
(lp128
g9
ag17
ag15
asS'Arsenic'
p129
(lp130
g17
asS'Best'
p131
(lp132
g20
asS'lemon.'
p133
(lp134
g9
asS'one'
p135
(lp136
g9
asS'Add'
p137
(lp138
g9
ag9
asS'<h1>'
p139
(lp140
g9
ag17
ag15
asS'</p>'
p141
(lp142
g11
asS'href="http://udacity.com/cs101x/urank/kathleen.html">Kathleen\'s'
p143
(lp144
g20
asS'her'
p145
(lp146
g17
asS"<h1>Dave's"
p147
(lp148
g20
asS'href="http://udacity.com/cs101x/urank/kathleen.html">'
p149
(lp150
g22
asS'recipies:'
p151
(lp152
g20
asS'<h1>The'
p153
(lp154
g11
ag22
asS'href="http://udacity.com/cs101x/urank/arsenic.html">World\'s'
p155
(lp156
g20
asS'beans.'
p157
(lp158
g9
asS'store'
p159
(lp160
g15
asS'more'
p161
(lp162
g20
asS'you.'
p163
(lp164
g17
asS'href="http://udacity.com/cs101x/urank/hummus.html">Hummus'
p165
(lp166
g20
asS'buy'
p167
(lp168
g15
asS'Squeeze'
p169
(lp170
g9
asS'Force'
p171
(lp172
g17
asS'pepper,'
p173
(lp174
g9
asS'can'
p175
(lp176
g9
asS'Zinc'
p177
(lp178
g11
asS'of'
p179
(lp180
g9
ag9
ag15
asS'Open'
p181
(lp182
g9
ag15
asS'and'
p183
(lp184
g20
ag9
ag15
asS'is'
p185
(lp186
g22
asS'Cooking'
p187
(lp188
g20
asS'Crush'
p189
(lp190
g9
asS'container'
p191
(lp192
g15
asS'in'
p193
(lp194
g9
ag9
asS'my'
p195
(lp196
g20
asS'check'
p197
(lp198
g20
asS'make'
p199
(lp200
g17
asS'Famous'
p201
(lp202
g17
asS'<ul>'
p203
(lp204
g20
asS'salt,'
p205
(lp206
g9
asS"Chef's"
p207
(lp208
g17
asS'I'
p209
(lp210
g11
ag11
asS"Kathleen's"
p211
(lp212
g9
asS'<ol>'
p213
(lp214
g9
ag17
ag15
asS'taste.'
p215
(lp216
g9
asS'href="http://udacity.com/cs101x/urank/nickel.html">Nickel'
p217
(lp218
g20
ag17
asS'<a'
p219
(lp220
g20
ag20
ag20
ag20
ag20
ag17
ag11
ag11
ag22
asS'<li>'
p221
(lp222
g20
ag20
ag20
ag9
ag9
ag9
ag9
ag9
ag17
ag17
ag15
ag15
asS'The'
p223
(lp224
g17
asS'a'
p225
(lp226
g9
ag9
ag15
asS'for'
p227
(lp228
g17
asS'</a>'
p229
(lp230
g22
asS'tahini'
p231
(lp232
g9
asS'the'
p233
(lp234
g20
ag17
ag22
ag15
asS'Kidnap'
p235
(lp236
g17
asS'recipe</a>.'
p237
(lp238
g11
assb.