ccopy_reg
_reconstructor
p0
(cstorage
Storage
p1
c__builtin__
object
p2
Ntp3
Rp4
(dp5
S'_ranks'
p6
NsS'_graph'
p7
(dp8
S'http://www.youfollowthefilm.com/family.php'
p9
(lp10
S'http://www.youfollowthefilm.com/index.php'
p11
aS'http://www.youfollowthefilm.com/index.php'
p12
aS'http://www.youfollowthefilm.com/resilience.php'
p13
aS'http://www.youfollowthefilm.com/trailer.php'
p14
aS'http://www.youfollowthefilm.com/updates.php'
p15
aS'http://www.youfollowthefilm.com/family.php'
p16
aS'http://www.youfollowthefilm.com/adventure.php'
p17
aS'http://www.youfollowthefilm.com/crew.php'
p18
aS'http://www.youfollowthefilm.com/contact.php'
p19
aS'http://www.youfollowthefilm.com/donate.php'
p20
aS'http://www.youfollowthefilm.com/share.php'
p21
aS'http://www.youfollowthefilm.com/comment.php'
p22
aS'http://www.youfollowthefilm.com/sponsors.php'
p23
aS'http://www.youfollowthefilm.com/press.php'
p24
aS'http://www.youfollowthefilm.com/nisha.php'
p25
aS'http://www.youfollowthefilm.com/nisha.php'
p26
aS'http://www.youfollowthefilm.com/reena.php'
p27
aS'http://www.youfollowthefilm.com/reena.php'
p28
aS'http://www.youfollowthefilm.com/victor-l.php'
p29
aS'http://www.youfollowthefilm.com/victor-l.php'
p30
aS'http://www.youfollowthefilm.com/hitesh.php'
p31
aS'http://www.youfollowthefilm.com/hitesh.php'
p32
aS'http://www.youfollowthefilm.com/sharmila.php'
p33
aS'http://www.youfollowthefilm.com/sharmila.php'
p34
aS'http://www.youfollowthefilm.com/mohan.php'
p35
aS'http://www.youfollowthefilm.com/mohan.php'
p36
aS'http://www.youfollowthefilm.com/vinyak.php'
p37
aS'http://www.youfollowthefilm.com/vinyak.php'
p38
aS'http://www.youfollowthefilm.com/victor-g.php'
p39
aS'http://www.youfollowthefilm.com/victor-g.php'
p40
aS'http://www.youfollowthefilm.com/tony.php'
p41
aS'http://www.youfollowthefilm.com/tony.php'
p42
aS'http://www.youfollowthefilm.com/ida.php'
p43
aS'http://www.youfollowthefilm.com/ida.php'
p44
aS'http://www.youfollowthefilm.com/mimi.php'
p45
aS'http://www.youfollowthefilm.com/mimi.php'
p46
asS'http://www.youfollowthefilm.com/lookbook-people.php'
p47
(lp48
S'http://www.youfollowthefilm.com/index.php'
p49
aS'http://www.youfollowthefilm.com/index.php'
p50
aS'http://www.youfollowthefilm.com/resilience.php'
p51
aS'http://www.youfollowthefilm.com/trailer.php'
p52
aS'http://www.youfollowthefilm.com/updates.php'
p53
aS'http://www.youfollowthefilm.com/family.php'
p54
aS'http://www.youfollowthefilm.com/adventure.php'
p55
aS'http://www.youfollowthefilm.com/crew.php'
p56
aS'http://www.youfollowthefilm.com/contact.php'
p57
aS'http://www.youfollowthefilm.com/donate.php'
p58
aS'http://www.youfollowthefilm.com/share.php'
p59
aS'http://www.youfollowthefilm.com/comment.php'
p60
aS'http://www.youfollowthefilm.com/sponsors.php'
p61
aS'http://www.youfollowthefilm.com/press.php'
p62
aS'http://www.youfollowthefilm.com/adventure.php'
p63
asS'http://www.youfollowthefilm.com/share.php'
p64
(lp65
S'http://www.youfollowthefilm.com/index.php'
p66
aS'http://www.youfollowthefilm.com/index.php'
p67
aS'http://www.youfollowthefilm.com/resilience.php'
p68
aS'http://www.youfollowthefilm.com/trailer.php'
p69
aS'http://www.youfollowthefilm.com/updates.php'
p70
aS'http://www.youfollowthefilm.com/family.php'
p71
aS'http://www.youfollowthefilm.com/adventure.php'
p72
aS'http://www.youfollowthefilm.com/crew.php'
p73
aS'http://www.youfollowthefilm.com/contact.php'
p74
aS'http://www.youfollowthefilm.com/donate.php'
p75
aS'http://www.youfollowthefilm.com/share.php'
p76
aS'http://www.youfollowthefilm.com/comment.php'
p77
aS'http://www.youfollowthefilm.com/sponsors.php'
p78
aS'http://www.youfollowthefilm.com/press.php'
p79
asS'http://www.youfollowthefilm.com'
p80
(lp81
S'http://www.youfollowthefilm.com/index.php'
p82
aS'http://www.youfollowthefilm.com/index.php'
p83
aS'http://www.youfollowthefilm.com/resilience.php'
p84
aS'http://www.youfollowthefilm.com/trailer.php'
p85
aS'http://www.youfollowthefilm.com/updates.php'
p86
ag9
aS'http://www.youfollowthefilm.com/adventure.php'
p87
aS'http://www.youfollowthefilm.com/crew.php'
p88
aS'http://www.youfollowthefilm.com/contact.php'
p89
aS'http://www.youfollowthefilm.com/donate.php'
p90
ag64
aS'http://www.youfollowthefilm.com/comment.php'
p91
aS'http://www.youfollowthefilm.com/sponsors.php'
p92
aS'http://www.youfollowthefilm.com/press.php'
p93
aS'http://www.youfollowthefilm.com/trailer.php'
p94
asg25
(lp95
S'http://www.youfollowthefilm.com/index.php'
p96
aS'http://www.youfollowthefilm.com/index.php'
p97
aS'http://www.youfollowthefilm.com/resilience.php'
p98
aS'http://www.youfollowthefilm.com/trailer.php'
p99
aS'http://www.youfollowthefilm.com/updates.php'
p100
aS'http://www.youfollowthefilm.com/family.php'
p101
aS'http://www.youfollowthefilm.com/adventure.php'
p102
aS'http://www.youfollowthefilm.com/crew.php'
p103
aS'http://www.youfollowthefilm.com/contact.php'
p104
aS'http://www.youfollowthefilm.com/donate.php'
p105
aS'http://www.youfollowthefilm.com/share.php'
p106
aS'http://www.youfollowthefilm.com/comment.php'
p107
aS'http://www.youfollowthefilm.com/sponsors.php'
p108
aS'http://www.youfollowthefilm.com/press.php'
p109
aS'http://www.youfollowthefilm.com/family.php'
p110
asg41
(lp111
S'http://www.youfollowthefilm.com/index.php'
p112
aS'http://www.youfollowthefilm.com/index.php'
p113
aS'http://www.youfollowthefilm.com/resilience.php'
p114
aS'http://www.youfollowthefilm.com/trailer.php'
p115
aS'http://www.youfollowthefilm.com/updates.php'
p116
aS'http://www.youfollowthefilm.com/family.php'
p117
aS'http://www.youfollowthefilm.com/adventure.php'
p118
aS'http://www.youfollowthefilm.com/crew.php'
p119
aS'http://www.youfollowthefilm.com/contact.php'
p120
aS'http://www.youfollowthefilm.com/donate.php'
p121
aS'http://www.youfollowthefilm.com/share.php'
p122
aS'http://www.youfollowthefilm.com/comment.php'
p123
aS'http://www.youfollowthefilm.com/sponsors.php'
p124
aS'http://www.youfollowthefilm.com/press.php'
p125
aS'http://www.youfollowthefilm.com/family.php'
p126
asg35
(lp127
S'http://www.youfollowthefilm.com/index.php'
p128
aS'http://www.youfollowthefilm.com/index.php'
p129
aS'http://www.youfollowthefilm.com/resilience.php'
p130
aS'http://www.youfollowthefilm.com/trailer.php'
p131
aS'http://www.youfollowthefilm.com/updates.php'
p132
aS'http://www.youfollowthefilm.com/family.php'
p133
aS'http://www.youfollowthefilm.com/adventure.php'
p134
aS'http://www.youfollowthefilm.com/crew.php'
p135
aS'http://www.youfollowthefilm.com/contact.php'
p136
aS'http://www.youfollowthefilm.com/donate.php'
p137
aS'http://www.youfollowthefilm.com/share.php'
p138
aS'http://www.youfollowthefilm.com/comment.php'
p139
aS'http://www.youfollowthefilm.com/sponsors.php'
p140
aS'http://www.youfollowthefilm.com/press.php'
p141
aS'http://www.youfollowthefilm.com/family.php'
p142
asg93
(lp143
S'http://www.youfollowthefilm.com/index.php'
p144
aS'http://www.youfollowthefilm.com/index.php'
p145
aS'http://www.youfollowthefilm.com/resilience.php'
p146
aS'http://www.youfollowthefilm.com/trailer.php'
p147
aS'http://www.youfollowthefilm.com/updates.php'
p148
aS'http://www.youfollowthefilm.com/family.php'
p149
aS'http://www.youfollowthefilm.com/adventure.php'
p150
aS'http://www.youfollowthefilm.com/crew.php'
p151
aS'http://www.youfollowthefilm.com/contact.php'
p152
aS'http://www.youfollowthefilm.com/donate.php'
p153
aS'http://www.youfollowthefilm.com/share.php'
p154
aS'http://www.youfollowthefilm.com/comment.php'
p155
aS'http://www.youfollowthefilm.com/sponsors.php'
p156
aS'http://www.youfollowthefilm.com/press.php'
p157
asg82
(lp158
S'http://www.youfollowthefilm.com/index.php'
p159
aS'http://www.youfollowthefilm.com/index.php'
p160
aS'http://www.youfollowthefilm.com/resilience.php'
p161
aS'http://www.youfollowthefilm.com/trailer.php'
p162
aS'http://www.youfollowthefilm.com/updates.php'
p163
aS'http://www.youfollowthefilm.com/family.php'
p164
aS'http://www.youfollowthefilm.com/adventure.php'
p165
aS'http://www.youfollowthefilm.com/crew.php'
p166
aS'http://www.youfollowthefilm.com/contact.php'
p167
aS'http://www.youfollowthefilm.com/donate.php'
p168
aS'http://www.youfollowthefilm.com/share.php'
p169
aS'http://www.youfollowthefilm.com/comment.php'
p170
aS'http://www.youfollowthefilm.com/sponsors.php'
p171
aS'http://www.youfollowthefilm.com/press.php'
p172
aS'http://www.youfollowthefilm.com/trailer.php'
p173
asg37
(lp174
S'http://www.youfollowthefilm.com/index.php'
p175
aS'http://www.youfollowthefilm.com/index.php'
p176
aS'http://www.youfollowthefilm.com/resilience.php'
p177
aS'http://www.youfollowthefilm.com/trailer.php'
p178
aS'http://www.youfollowthefilm.com/updates.php'
p179
aS'http://www.youfollowthefilm.com/family.php'
p180
aS'http://www.youfollowthefilm.com/adventure.php'
p181
aS'http://www.youfollowthefilm.com/crew.php'
p182
aS'http://www.youfollowthefilm.com/contact.php'
p183
aS'http://www.youfollowthefilm.com/donate.php'
p184
aS'http://www.youfollowthefilm.com/share.php'
p185
aS'http://www.youfollowthefilm.com/comment.php'
p186
aS'http://www.youfollowthefilm.com/sponsors.php'
p187
aS'http://www.youfollowthefilm.com/press.php'
p188
aS'http://www.youfollowthefilm.com/family.php'
p189
asg90
(lp190
S'http://www.youfollowthefilm.com/index.php'
p191
aS'http://www.youfollowthefilm.com/index.php'
p192
aS'http://www.youfollowthefilm.com/resilience.php'
p193
aS'http://www.youfollowthefilm.com/trailer.php'
p194
aS'http://www.youfollowthefilm.com/updates.php'
p195
aS'http://www.youfollowthefilm.com/family.php'
p196
aS'http://www.youfollowthefilm.com/adventure.php'
p197
aS'http://www.youfollowthefilm.com/crew.php'
p198
aS'http://www.youfollowthefilm.com/contact.php'
p199
aS'http://www.youfollowthefilm.com/donate.php'
p200
aS'http://www.youfollowthefilm.com/share.php'
p201
aS'http://www.youfollowthefilm.com/comment.php'
p202
aS'http://www.youfollowthefilm.com/sponsors.php'
p203
aS'http://www.youfollowthefilm.com/press.php'
p204
asg84
(lp205
S'http://www.youfollowthefilm.com/index.php'
p206
aS'http://www.youfollowthefilm.com/index.php'
p207
aS'http://www.youfollowthefilm.com/resilience.php'
p208
aS'http://www.youfollowthefilm.com/trailer.php'
p209
aS'http://www.youfollowthefilm.com/updates.php'
p210
aS'http://www.youfollowthefilm.com/family.php'
p211
aS'http://www.youfollowthefilm.com/adventure.php'
p212
aS'http://www.youfollowthefilm.com/crew.php'
p213
aS'http://www.youfollowthefilm.com/contact.php'
p214
aS'http://www.youfollowthefilm.com/donate.php'
p215
aS'http://www.youfollowthefilm.com/share.php'
p216
aS'http://www.youfollowthefilm.com/comment.php'
p217
aS'http://www.youfollowthefilm.com/sponsors.php'
p218
aS'http://www.youfollowthefilm.com/press.php'
p219
asg85
(lp220
S'http://www.youfollowthefilm.com/index.php'
p221
aS'http://www.youfollowthefilm.com/index.php'
p222
aS'http://www.youfollowthefilm.com/resilience.php'
p223
aS'http://www.youfollowthefilm.com/trailer.php'
p224
aS'http://www.youfollowthefilm.com/updates.php'
p225
aS'http://www.youfollowthefilm.com/family.php'
p226
aS'http://www.youfollowthefilm.com/adventure.php'
p227
aS'http://www.youfollowthefilm.com/crew.php'
p228
aS'http://www.youfollowthefilm.com/contact.php'
p229
aS'http://www.youfollowthefilm.com/donate.php'
p230
aS'http://www.youfollowthefilm.com/share.php'
p231
aS'http://www.youfollowthefilm.com/comment.php'
p232
aS'http://www.youfollowthefilm.com/sponsors.php'
p233
aS'http://www.youfollowthefilm.com/press.php'
p234
asS'http://www.youfollowthefilm.com/lookbook-crew.php'
p235
(lp236
S'http://www.youfollowthefilm.com/index.php'
p237
aS'http://www.youfollowthefilm.com/index.php'
p238
aS'http://www.youfollowthefilm.com/resilience.php'
p239
aS'http://www.youfollowthefilm.com/trailer.php'
p240
aS'http://www.youfollowthefilm.com/updates.php'
p241
aS'http://www.youfollowthefilm.com/family.php'
p242
aS'http://www.youfollowthefilm.com/adventure.php'
p243
aS'http://www.youfollowthefilm.com/crew.php'
p244
aS'http://www.youfollowthefilm.com/contact.php'
p245
aS'http://www.youfollowthefilm.com/donate.php'
p246
aS'http://www.youfollowthefilm.com/share.php'
p247
aS'http://www.youfollowthefilm.com/comment.php'
p248
aS'http://www.youfollowthefilm.com/sponsors.php'
p249
aS'http://www.youfollowthefilm.com/press.php'
p250
aS'http://www.youfollowthefilm.com/adventure.php'
p251
asg89
(lp252
S'http://www.youfollowthefilm.com/index.php'
p253
aS'http://www.youfollowthefilm.com/index.php'
p254
aS'http://www.youfollowthefilm.com/resilience.php'
p255
aS'http://www.youfollowthefilm.com/trailer.php'
p256
aS'http://www.youfollowthefilm.com/updates.php'
p257
aS'http://www.youfollowthefilm.com/family.php'
p258
aS'http://www.youfollowthefilm.com/adventure.php'
p259
aS'http://www.youfollowthefilm.com/crew.php'
p260
aS'http://www.youfollowthefilm.com/contact.php'
p261
aS'http://www.youfollowthefilm.com/donate.php'
p262
aS'http://www.youfollowthefilm.com/share.php'
p263
aS'http://www.youfollowthefilm.com/comment.php'
p264
aS'http://www.youfollowthefilm.com/sponsors.php'
p265
aS'http://www.youfollowthefilm.com/press.php'
p266
asg91
(lp267
S'http://www.youfollowthefilm.com/index.php'
p268
aS'http://www.youfollowthefilm.com/index.php'
p269
aS'http://www.youfollowthefilm.com/resilience.php'
p270
aS'http://www.youfollowthefilm.com/trailer.php'
p271
aS'http://www.youfollowthefilm.com/updates.php'
p272
aS'http://www.youfollowthefilm.com/family.php'
p273
aS'http://www.youfollowthefilm.com/adventure.php'
p274
aS'http://www.youfollowthefilm.com/crew.php'
p275
aS'http://www.youfollowthefilm.com/contact.php'
p276
aS'http://www.youfollowthefilm.com/donate.php'
p277
aS'http://www.youfollowthefilm.com/share.php'
p278
aS'http://www.youfollowthefilm.com/comment.php'
p279
aS'http://www.youfollowthefilm.com/sponsors.php'
p280
aS'http://www.youfollowthefilm.com/press.php'
p281
asg86
(lp282
S'http://www.youfollowthefilm.com/index.php'
p283
aS'http://www.youfollowthefilm.com/index.php'
p284
aS'http://www.youfollowthefilm.com/resilience.php'
p285
aS'http://www.youfollowthefilm.com/trailer.php'
p286
aS'http://www.youfollowthefilm.com/updates.php'
p287
aS'http://www.youfollowthefilm.com/family.php'
p288
aS'http://www.youfollowthefilm.com/adventure.php'
p289
aS'http://www.youfollowthefilm.com/crew.php'
p290
aS'http://www.youfollowthefilm.com/contact.php'
p291
aS'http://www.youfollowthefilm.com/donate.php'
p292
aS'http://www.youfollowthefilm.com/share.php'
p293
aS'http://www.youfollowthefilm.com/comment.php'
p294
aS'http://www.youfollowthefilm.com/sponsors.php'
p295
aS'http://www.youfollowthefilm.com/press.php'
p296
asg33
(lp297
S'http://www.youfollowthefilm.com/index.php'
p298
aS'http://www.youfollowthefilm.com/index.php'
p299
aS'http://www.youfollowthefilm.com/resilience.php'
p300
aS'http://www.youfollowthefilm.com/trailer.php'
p301
aS'http://www.youfollowthefilm.com/updates.php'
p302
aS'http://www.youfollowthefilm.com/family.php'
p303
aS'http://www.youfollowthefilm.com/adventure.php'
p304
aS'http://www.youfollowthefilm.com/crew.php'
p305
aS'http://www.youfollowthefilm.com/contact.php'
p306
aS'http://www.youfollowthefilm.com/donate.php'
p307
aS'http://www.youfollowthefilm.com/share.php'
p308
aS'http://www.youfollowthefilm.com/comment.php'
p309
aS'http://www.youfollowthefilm.com/sponsors.php'
p310
aS'http://www.youfollowthefilm.com/press.php'
p311
aS'http://www.youfollowthefilm.com/family.php'
p312
asS'http://www.youfollowthefilm.com/lookbook-places.php'
p313
(lp314
S'http://www.youfollowthefilm.com/index.php'
p315
aS'http://www.youfollowthefilm.com/index.php'
p316
aS'http://www.youfollowthefilm.com/resilience.php'
p317
aS'http://www.youfollowthefilm.com/trailer.php'
p318
aS'http://www.youfollowthefilm.com/updates.php'
p319
aS'http://www.youfollowthefilm.com/family.php'
p320
aS'http://www.youfollowthefilm.com/adventure.php'
p321
aS'http://www.youfollowthefilm.com/crew.php'
p322
aS'http://www.youfollowthefilm.com/contact.php'
p323
aS'http://www.youfollowthefilm.com/donate.php'
p324
aS'http://www.youfollowthefilm.com/share.php'
p325
aS'http://www.youfollowthefilm.com/comment.php'
p326
aS'http://www.youfollowthefilm.com/sponsors.php'
p327
aS'http://www.youfollowthefilm.com/press.php'
p328
aS'http://www.youfollowthefilm.com/adventure.php'
p329
asg39
(lp330
S'http://www.youfollowthefilm.com/index.php'
p331
aS'http://www.youfollowthefilm.com/index.php'
p332
aS'http://www.youfollowthefilm.com/resilience.php'
p333
aS'http://www.youfollowthefilm.com/trailer.php'
p334
aS'http://www.youfollowthefilm.com/updates.php'
p335
aS'http://www.youfollowthefilm.com/family.php'
p336
aS'http://www.youfollowthefilm.com/adventure.php'
p337
aS'http://www.youfollowthefilm.com/crew.php'
p338
aS'http://www.youfollowthefilm.com/contact.php'
p339
aS'http://www.youfollowthefilm.com/donate.php'
p340
aS'http://www.youfollowthefilm.com/share.php'
p341
aS'http://www.youfollowthefilm.com/comment.php'
p342
aS'http://www.youfollowthefilm.com/sponsors.php'
p343
aS'http://www.youfollowthefilm.com/press.php'
p344
aS'http://www.youfollowthefilm.com/family.php'
p345
asg27
(lp346
S'http://www.youfollowthefilm.com/index.php'
p347
aS'http://www.youfollowthefilm.com/index.php'
p348
aS'http://www.youfollowthefilm.com/resilience.php'
p349
aS'http://www.youfollowthefilm.com/trailer.php'
p350
aS'http://www.youfollowthefilm.com/updates.php'
p351
aS'http://www.youfollowthefilm.com/family.php'
p352
aS'http://www.youfollowthefilm.com/adventure.php'
p353
aS'http://www.youfollowthefilm.com/crew.php'
p354
aS'http://www.youfollowthefilm.com/contact.php'
p355
aS'http://www.youfollowthefilm.com/donate.php'
p356
aS'http://www.youfollowthefilm.com/share.php'
p357
aS'http://www.youfollowthefilm.com/comment.php'
p358
aS'http://www.youfollowthefilm.com/sponsors.php'
p359
aS'http://www.youfollowthefilm.com/press.php'
p360
aS'http://www.youfollowthefilm.com/family.php'
p361
asg92
(lp362
S'http://www.youfollowthefilm.com/index.php'
p363
aS'http://www.youfollowthefilm.com/index.php'
p364
aS'http://www.youfollowthefilm.com/resilience.php'
p365
aS'http://www.youfollowthefilm.com/trailer.php'
p366
aS'http://www.youfollowthefilm.com/updates.php'
p367
aS'http://www.youfollowthefilm.com/family.php'
p368
aS'http://www.youfollowthefilm.com/adventure.php'
p369
aS'http://www.youfollowthefilm.com/crew.php'
p370
aS'http://www.youfollowthefilm.com/contact.php'
p371
aS'http://www.youfollowthefilm.com/donate.php'
p372
aS'http://www.youfollowthefilm.com/share.php'
p373
aS'http://www.youfollowthefilm.com/comment.php'
p374
aS'http://www.youfollowthefilm.com/sponsors.php'
p375
aS'http://www.youfollowthefilm.com/press.php'
p376
asg29
(lp377
S'http://www.youfollowthefilm.com/index.php'
p378
aS'http://www.youfollowthefilm.com/index.php'
p379
aS'http://www.youfollowthefilm.com/resilience.php'
p380
aS'http://www.youfollowthefilm.com/trailer.php'
p381
aS'http://www.youfollowthefilm.com/updates.php'
p382
aS'http://www.youfollowthefilm.com/family.php'
p383
aS'http://www.youfollowthefilm.com/adventure.php'
p384
aS'http://www.youfollowthefilm.com/crew.php'
p385
aS'http://www.youfollowthefilm.com/contact.php'
p386
aS'http://www.youfollowthefilm.com/donate.php'
p387
aS'http://www.youfollowthefilm.com/share.php'
p388
aS'http://www.youfollowthefilm.com/comment.php'
p389
aS'http://www.youfollowthefilm.com/sponsors.php'
p390
aS'http://www.youfollowthefilm.com/press.php'
p391
aS'http://www.youfollowthefilm.com/family.php'
p392
asS'http://www.youfollowthefilm.com/lookbook-landscape.php'
p393
(lp394
S'http://www.youfollowthefilm.com/index.php'
p395
aS'http://www.youfollowthefilm.com/index.php'
p396
aS'http://www.youfollowthefilm.com/resilience.php'
p397
aS'http://www.youfollowthefilm.com/trailer.php'
p398
aS'http://www.youfollowthefilm.com/updates.php'
p399
aS'http://www.youfollowthefilm.com/family.php'
p400
aS'http://www.youfollowthefilm.com/adventure.php'
p401
aS'http://www.youfollowthefilm.com/crew.php'
p402
aS'http://www.youfollowthefilm.com/contact.php'
p403
aS'http://www.youfollowthefilm.com/donate.php'
p404
aS'http://www.youfollowthefilm.com/share.php'
p405
aS'http://www.youfollowthefilm.com/comment.php'
p406
aS'http://www.youfollowthefilm.com/sponsors.php'
p407
aS'http://www.youfollowthefilm.com/press.php'
p408
aS'http://www.youfollowthefilm.com/adventure.php'
p409
asg88
(lp410
S'http://www.youfollowthefilm.com/index.php'
p411
aS'http://www.youfollowthefilm.com/index.php'
p412
aS'http://www.youfollowthefilm.com/resilience.php'
p413
aS'http://www.youfollowthefilm.com/trailer.php'
p414
aS'http://www.youfollowthefilm.com/updates.php'
p415
aS'http://www.youfollowthefilm.com/family.php'
p416
aS'http://www.youfollowthefilm.com/adventure.php'
p417
aS'http://www.youfollowthefilm.com/crew.php'
p418
aS'http://www.youfollowthefilm.com/contact.php'
p419
aS'http://www.youfollowthefilm.com/donate.php'
p420
aS'http://www.youfollowthefilm.com/share.php'
p421
aS'http://www.youfollowthefilm.com/comment.php'
p422
aS'http://www.youfollowthefilm.com/sponsors.php'
p423
aS'http://www.youfollowthefilm.com/press.php'
p424
asg87
(lp425
S'http://www.youfollowthefilm.com/index.php'
p426
aS'http://www.youfollowthefilm.com/index.php'
p427
aS'http://www.youfollowthefilm.com/resilience.php'
p428
aS'http://www.youfollowthefilm.com/trailer.php'
p429
aS'http://www.youfollowthefilm.com/updates.php'
p430
aS'http://www.youfollowthefilm.com/family.php'
p431
aS'http://www.youfollowthefilm.com/adventure.php'
p432
aS'http://www.youfollowthefilm.com/crew.php'
p433
aS'http://www.youfollowthefilm.com/contact.php'
p434
aS'http://www.youfollowthefilm.com/donate.php'
p435
aS'http://www.youfollowthefilm.com/share.php'
p436
aS'http://www.youfollowthefilm.com/comment.php'
p437
aS'http://www.youfollowthefilm.com/sponsors.php'
p438
aS'http://www.youfollowthefilm.com/press.php'
p439
ag235
ag393
ag47
ag313
asg31
(lp440
S'http://www.youfollowthefilm.com/index.php'
p441
aS'http://www.youfollowthefilm.com/index.php'
p442
aS'http://www.youfollowthefilm.com/resilience.php'
p443
aS'http://www.youfollowthefilm.com/trailer.php'
p444
aS'http://www.youfollowthefilm.com/updates.php'
p445
aS'http://www.youfollowthefilm.com/family.php'
p446
aS'http://www.youfollowthefilm.com/adventure.php'
p447
aS'http://www.youfollowthefilm.com/crew.php'
p448
aS'http://www.youfollowthefilm.com/contact.php'
p449
aS'http://www.youfollowthefilm.com/donate.php'
p450
aS'http://www.youfollowthefilm.com/share.php'
p451
aS'http://www.youfollowthefilm.com/comment.php'
p452
aS'http://www.youfollowthefilm.com/sponsors.php'
p453
aS'http://www.youfollowthefilm.com/press.php'
p454
aS'http://www.youfollowthefilm.com/family.php'
p455
asg45
(lp456
S'http://www.youfollowthefilm.com/index.php'
p457
aS'http://www.youfollowthefilm.com/index.php'
p458
aS'http://www.youfollowthefilm.com/resilience.php'
p459
aS'http://www.youfollowthefilm.com/trailer.php'
p460
aS'http://www.youfollowthefilm.com/updates.php'
p461
aS'http://www.youfollowthefilm.com/family.php'
p462
aS'http://www.youfollowthefilm.com/adventure.php'
p463
aS'http://www.youfollowthefilm.com/crew.php'
p464
aS'http://www.youfollowthefilm.com/contact.php'
p465
aS'http://www.youfollowthefilm.com/donate.php'
p466
aS'http://www.youfollowthefilm.com/share.php'
p467
aS'http://www.youfollowthefilm.com/comment.php'
p468
aS'http://www.youfollowthefilm.com/sponsors.php'
p469
aS'http://www.youfollowthefilm.com/press.php'
p470
aS'http://www.youfollowthefilm.com/family.php'
p471
asg43
(lp472
S'http://www.youfollowthefilm.com/index.php'
p473
aS'http://www.youfollowthefilm.com/index.php'
p474
aS'http://www.youfollowthefilm.com/resilience.php'
p475
aS'http://www.youfollowthefilm.com/trailer.php'
p476
aS'http://www.youfollowthefilm.com/updates.php'
p477
aS'http://www.youfollowthefilm.com/family.php'
p478
aS'http://www.youfollowthefilm.com/adventure.php'
p479
aS'http://www.youfollowthefilm.com/crew.php'
p480
aS'http://www.youfollowthefilm.com/contact.php'
p481
aS'http://www.youfollowthefilm.com/donate.php'
p482
aS'http://www.youfollowthefilm.com/share.php'
p483
aS'http://www.youfollowthefilm.com/comment.php'
p484
aS'http://www.youfollowthefilm.com/sponsors.php'
p485
aS'http://www.youfollowthefilm.com/press.php'
p486
aS'http://www.youfollowthefilm.com/family.php'
p487
assS'_index'
p488
(dp489
Vall
p490
(lp491
g64
ag90
asVremarkable
p492
(lp493
g41
ag39
asVgoa
p494
(lp495
g25
ag93
ag84
ag29
ag43
ag31
asVdollar
p496
(lp497
g90
asVmonth
p498
(lp499
g84
asVfour
p500
(lp501
g84
asVgazillion
p502
(lp503
g93
asVga
p504
(lp505
g80
ag80
ag80
ag9
ag9
ag9
ag64
ag64
ag64
ag25
ag25
ag25
ag41
ag41
ag41
ag35
ag35
ag35
ag93
ag93
ag93
ag82
ag82
ag82
ag37
ag37
ag37
ag90
ag90
ag90
ag39
ag39
ag39
ag85
ag85
ag85
ag89
ag89
ag89
ag91
ag91
ag91
ag86
ag86
ag86
ag33
ag33
ag33
ag84
ag84
ag84
ag27
ag27
ag27
ag29
ag29
ag29
ag43
ag43
ag43
ag88
ag88
ag88
ag87
ag87
ag87
ag47
ag47
ag47
ag235
ag235
ag235
ag313
ag313
ag313
ag393
ag393
ag393
ag31
ag31
ag31
ag45
ag45
ag45
ag92
ag92
ag92
asVskin
p506
(lp507
g93
asVfollow
p508
(lp509
g80
ag80
ag80
ag9
ag9
ag9
ag64
ag64
ag64
ag64
ag64
ag25
ag25
ag25
ag25
ag41
ag41
ag41
ag41
ag35
ag35
ag35
ag93
ag93
ag93
ag93
ag93
ag82
ag82
ag82
ag37
ag37
ag37
ag90
ag90
ag90
ag90
ag90
ag39
ag39
ag39
ag85
ag85
ag85
ag89
ag89
ag89
ag91
ag91
ag91
ag91
ag86
ag86
ag86
ag33
ag33
ag33
ag33
ag84
ag84
ag84
ag84
ag84
ag84
ag27
ag27
ag27
ag27
ag29
ag29
ag29
ag29
ag43
ag43
ag43
ag88
ag88
ag88
ag87
ag87
ag87
ag47
ag47
ag47
ag235
ag235
ag235
ag313
ag313
ag313
ag393
ag393
ag393
ag31
ag31
ag31
ag45
ag45
ag45
ag92
ag92
ag92
asVreligious
p510
(lp511
g41
asVchildren
p512
(lp513
g93
asVseemed
p514
(lp515
g45
asVwhose
p516
(lp517
g35
asVbirthplace
p518
(lp519
g84
asVbut
p520
(lp521
g45
asVthemes
p522
(lp523
g47
ag235
ag313
ag393
asVfilming
p524
(lp525
g29
ag88
ag45
asVsend
p526
(lp527
g80
ag9
ag64
ag25
ag41
ag35
ag93
ag82
ag37
ag90
ag39
ag85
ag89
ag91
ag86
ag33
ag84
ag27
ag29
ag43
ag88
ag87
ag47
ag235
ag313
ag393
ag31
ag45
ag92
asVto
p528
(lp529
g80
ag9
ag9
ag64
ag64
ag64
ag64
ag64
ag64
ag64
ag64
ag64
ag64
ag64
ag25
ag25
ag25
ag25
ag41
ag41
ag41
ag35
ag35
ag35
ag35
ag35
ag93
ag93
ag93
ag93
ag93
ag93
ag82
ag37
ag37
ag90
ag90
ag90
ag90
ag90
ag90
ag90
ag90
ag90
ag39
ag39
ag39
ag39
ag85
ag89
ag91
ag91
ag91
ag91
ag91
ag91
ag86
ag33
ag33
ag33
ag33
ag33
ag33
ag84
ag84
ag84
ag84
ag84
ag84
ag84
ag27
ag27
ag27
ag27
ag29
ag29
ag29
ag29
ag29
ag29
ag43
ag43
ag43
ag88
ag87
ag47
ag235
ag313
ag393
ag31
ag31
ag31
ag31
ag31
ag31
ag31
ag45
ag45
ag45
ag45
ag45
ag45
ag45
ag92
ag92
ag92
asVcharge
p530
(lp531
g43
asVatlas
p532
(lp533
g90
asVsafety
p534
(lp535
g43
ag45
asVwoman
p536
(lp537
g43
ag45
asVsong
p538
(lp539
g90
asVvery
p540
(lp541
g64
ag37
ag90
ag90
ag39
ag91
asVhilarious
p542
(lp543
g45
asVsponsors
p544
(lp545
g80
ag9
ag64
ag25
ag41
ag35
ag93
ag82
ag37
ag90
ag39
ag85
ag89
ag91
ag86
ag33
ag84
ag27
ag29
ag43
ag88
ag87
ag47
ag235
ag313
ag393
ag31
ag45
ag92
ag92
asVunfamiliar
p546
(lp547
g41
asVokorougo
p548
(lp549
g90
asVfacebook
p550
(lp551
g80
ag9
ag64
ag64
ag25
ag41
ag35
ag93
ag82
ag37
ag90
ag39
ag85
ag89
ag91
ag86
ag33
ag84
ag27
ag29
ag43
ag88
ag87
ag47
ag235
ag313
ag393
ag31
ag45
ag92
asVupdates
p552
(lp553
g80
ag9
ag64
ag25
ag41
ag35
ag93
ag82
ag37
ag90
ag39
ag85
ag89
ag91
ag86
ag86
ag86
ag33
ag84
ag27
ag29
ag43
ag88
ag87
ag47
ag235
ag313
ag393
ag31
ag45
ag92
asVconception
p554
(lp555
g33
asVdifference
p556
(lp557
g64
asVwjs
p558
(lp559
g80
ag9
ag64
ag25
ag41
ag35
ag93
ag82
ag37
ag90
ag39
ag85
ag89
ag91
ag86
ag33
ag84
ag27
ag29
ag43
ag88
ag87
ag47
ag235
ag313
ag393
ag31
ag45
ag92
asVencounter
p560
(lp561
g35
asVdisconnected
p562
(lp563
g37
asVtimely
p564
(lp565
g27
asVleads
p566
(lp567
g84
asVtear
p568
(lp569
g33
asVcompassionate
p570
(lp571
g25
asVmichael
p572
(lp573
g90
asVthoughtful
p574
(lp575
g31
asVlarge
p576
(lp577
g90
asVteam
p578
(lp579
g41
ag35
ag37
ag43
ag45
asVsmall
p580
(lp581
g90
asVlisa
p582
(lp583
g90
asVround
p584
(lp585
g93
asVspiritual
p586
(lp587
g25
asVunexpected
p588
(lp589
g84
asVsays
p590
(lp591
g41
asVwithheld
p592
(lp593
g41
asVdirect
p594
(lp595
g33
asVpast
p596
(lp597
g25
ag25
asVparents
p598
(lp599
g45
asVperspective
p600
(lp601
g37
ag43
ag45
asVlavery
p602
(lp603
g80
ag9
ag64
ag25
ag41
ag35
ag93
ag82
ag37
ag90
ag90
ag90
ag39
ag85
ag89
ag89
ag91
ag86
ag33
ag84
ag27
ag29
ag43
ag88
ag88
ag87
ag47
ag235
ag313
ag393
ag31
ag45
ag92
ag92
asVclick
p604
(lp605
g9
asVvictor
p606
(lp607
g9
ag9
ag39
ag39
ag39
ag39
ag39
ag29
ag29
ag29
ag29
ag29
asVwhat
p608
(lp609
g93
ag93
ag93
ag33
asVgiving
p610
(lp611
g41
asVjeopardy
p612
(lp613
g31
asVshares
p614
(lp615
g93
ag39
ag31
asVconsistently
p616
(lp617
g25
asVindian
p618
(lp619
g93
ag27
ag31
asVgoes
p620
(lp621
g90
asVshared
p622
(lp623
g64
asVever
p624
(lp625
g84
asVsusanna
p626
(lp627
g90
asVsupporting
p628
(lp629
g43
asVevolving
p630
(lp631
g25
asVfull
p632
(lp633
g84
ag84
asVled
p634
(lp635
g35
asVchose
p636
(lp637
g64
asVdrew
p638
(lp639
g35
asVdelivering
p640
(lp641
g27
asVexplore
p642
(lp643
g45
asVpursuit
p644
(lp645
g41
asVaddress
p646
(lp647
g91
asVpath
p648
(lp649
g80
ag80
ag80
ag80
ag9
ag9
ag9
ag9
ag64
ag64
ag64
ag64
ag64
ag25
ag25
ag25
ag25
ag41
ag41
ag41
ag41
ag35
ag35
ag35
ag35
ag35
ag93
ag93
ag93
ag93
ag82
ag82
ag82
ag82
ag37
ag37
ag37
ag37
ag90
ag90
ag90
ag90
ag90
ag39
ag39
ag39
ag39
ag85
ag85
ag85
ag85
ag89
ag89
ag89
ag89
ag91
ag91
ag91
ag91
ag91
ag86
ag86
ag86
ag86
ag33
ag33
ag33
ag33
ag84
ag84
ag84
ag84
ag27
ag27
ag27
ag27
ag29
ag29
ag29
ag29
ag43
ag43
ag43
ag43
ag88
ag88
ag88
ag88
ag87
ag87
ag87
ag87
ag47
ag47
ag47
ag47
ag235
ag235
ag235
ag235
ag313
ag313
ag313
ag313
ag393
ag393
ag393
ag393
ag31
ag31
ag31
ag31
ag45
ag45
ag45
ag45
ag92
ag92
ag92
ag92
asValong
p650
(lp651
g25
ag41
ag84
ag43
ag31
asVsalzano
p652
(lp653
g88
asV39
p654
(lp655
g84
asVdeductible
p656
(lp657
g90
asVdaughter
p658
(lp659
g43
ag45
asVinvolved
p660
(lp661
g25
ag29
asVreena
p662
(lp663
g9
ag33
ag27
ag27
ag27
ag27
ag88
asVallows
p664
(lp665
g33
asVexperience
p666
(lp667
g37
asVexemplifies
p668
(lp669
g33
asVsocial
p670
(lp671
g37
ag88
ag88
asVhospitality
p672
(lp673
g41
ag43
asVbob
p674
(lp675
g88
asVmakes
p676
(lp677
g35
asVlove
p678
(lp679
g90
ag92
asVdisposition
p680
(lp681
g31
asVcampaign
p682
(lp683
g93
asVscreens
p684
(lp685
g64
ag90
ag91
asVconflicts
p686
(lp687
g31
asVfollower
p688
(lp689
g33
asVnames
p690
(lp691
g9
asVcomposer
p692
(lp693
g88
asVunit
p694
(lp695
g88
asVeye
p696
(lp697
g93
ag93
asVtakes
p698
(lp699
g43
asVworking
p700
(lp701
g29
asVpositive
p702
(lp703
g27
asVkhalashi
p704
(lp705
g90
ag31
asVassuring
p706
(lp707
g45
asVcamera
p708
(lp709
g25
asVmusic
p710
(lp711
g88
asVhttps
p712
(lp713
g80
ag9
ag64
ag25
ag41
ag35
ag93
ag82
ag37
ag90
ag39
ag85
ag89
ag91
ag86
ag33
ag84
ag27
ag29
ag43
ag88
ag87
ag47
ag235
ag313
ag393
ag31
ag45
ag92
asVsharmila
p714
(lp715
g9
ag35
ag93
ag89
ag33
ag33
ag33
ag33
ag27
ag88
asVcreates
p716
(lp717
g31
asVmore
p718
(lp719
g9
asVsharing
p720
(lp721
g64
ag64
ag93
ag37
asVclicking
p722
(lp723
g90
asVshare
p724
(lp725
g80
ag9
ag64
ag64
ag25
ag41
ag35
ag93
ag93
ag82
ag37
ag90
ag39
ag85
ag89
ag91
ag86
ag33
ag84
ag27
ag29
ag43
ag88
ag87
ag47
ag235
ag313
ag393
ag31
ag45
ag45
ag92
asVdion
p726
(lp727
g88
asVsister
p728
(lp729
g33
ag27
asVwarm
p730
(lp731
g41
ag35
asVeverywhere
p732
(lp733
g64
ag90
ag90
ag91
asVknown
p734
(lp735
g84
asVfoundations
p736
(lp737
g92
asVrivalry
p738
(lp739
g33
asVwomen
p740
(lp741
g39
asVtown
p742
(lp743
g35
ag39
asVorganizations
p744
(lp745
g92
asVbellestri
p746
(lp747
g90
asVword
p748
(lp749
g93
asVbalance
p750
(lp751
g31
asVrights
p752
(lp753
g93
asVthis
p754
(lp755
g64
ag64
ag93
ag93
ag90
ag91
ag84
asVwork
p756
(lp757
g35
ag35
asVgrowing
p758
(lp759
g45
asVmeet
p760
(lp761
g84
asVhistory
p762
(lp763
g35
ag39
ag39
asVheart
p764
(lp765
g35
ag84
asVdedicated
p766
(lp767
g29
ag43
asVfigure
p768
(lp769
g27
asVprocess
p770
(lp771
g29
asVpreserving
p772
(lp773
g39
asVindia
p774
(lp775
g25
ag84
ag84
asVpromotional
p776
(lp777
g29
asVstates
p778
(lp779
g84
asVmohan
p780
(lp781
g9
ag35
ag35
ag35
ag35
asVkost
p782
(lp783
g90
asVbecca
p784
(lp785
g90
asVnative
p786
(lp787
g41
ag39
ag43
asVinformation
p788
(lp789
g41
ag39
asVunited
p790
(lp791
g84
asVgoan
p792
(lp793
g41
ag35
ag37
ag37
ag39
ag39
ag39
ag45
asVprovide
p794
(lp795
g39
asVtravel
p796
(lp797
g29
ag45
asVamerican
p798
(lp799
g93
asVstayed
p800
(lp801
g35
asV1
p802
(lp803
g80
ag9
ag64
ag25
ag41
ag35
ag93
ag82
ag37
ag90
ag39
ag85
ag89
ag91
ag86
ag33
ag84
ag27
ag29
ag43
ag88
ag87
ag47
ag235
ag313
ag393
ag31
ag45
ag92
asVhow
p804
(lp805
g90
asVamazing
p806
(lp807
g64
asVluke
p808
(lp809
g88
asVvinyak
p810
(lp811
g9
ag37
ag37
ag37
asVif
p812
(lp813
g80
ag9
ag64
ag25
ag41
ag35
ag93
ag82
ag37
ag90
ag39
ag85
ag89
ag91
ag86
ag33
ag84
ag27
ag29
ag43
ag88
ag87
ag47
ag235
ag313
ag393
ag31
ag45
ag92
ag92
asVdevika
p814
(lp815
g93
asVplans
p816
(lp817
g45
asVethica
p818
(lp819
g93
asVadvice
p820
(lp821
g43
asVafter
p822
(lp823
g84
asVloyalty
p824
(lp825
g84
asVmultitude
p826
(lp827
g33
asVadventure
p828
(lp829
g80
ag9
ag64
ag64
ag25
ag41
ag35
ag93
ag82
ag37
ag90
ag39
ag85
ag89
ag91
ag86
ag33
ag84
ag84
ag27
ag29
ag43
ag88
ag87
ag87
ag47
ag235
ag313
ag393
ag31
ag45
ag92
asVcoming
p830
(lp831
g41
ag27
asVman
p832
(lp833
g41
asVa
p834
(lp835
g64
ag64
ag25
ag25
ag25
ag41
ag41
ag41
ag41
ag41
ag35
ag35
ag35
ag93
ag93
ag37
ag37
ag37
ag37
ag90
ag90
ag39
ag39
ag39
ag91
ag33
ag33
ag33
ag33
ag33
ag84
ag84
ag84
ag84
ag84
ag84
ag27
ag27
ag27
ag29
ag29
ag43
ag43
ag43
ag43
ag31
ag31
ag31
ag31
ag45
ag45
ag45
ag92
ag92
asVno
p836
(lp837
g90
asVconcern
p838
(lp839
g45
asVduterte
p840
(lp841
g90
asVchildhood
p842
(lp843
g35
asVso
p844
(lp845
g41
asVroad
p846
(lp847
g84
asVevery
p848
(lp849
g64
ag25
ag90
asVcountryside
p850
(lp851
g37
ag39
asVhelp
p852
(lp853
g92
asVproducer
p854
(lp855
g89
ag89
ag88
ag88
asVresiliency
p856
(lp857
g64
asVwelcomed
p858
(lp859
g41
asVessence
p860
(lp861
g84
asVheartfelt
p862
(lp863
g84
asVinsight
p864
(lp865
g39
asVmission
p866
(lp867
g45
asVcarmela
p868
(lp869
g90
asVyears
p870
(lp871
g37
ag84
ag84
asVdijkstra
p872
(lp873
g90
asVthrough
p874
(lp875
g90
ag39
ag84
ag27
asVcommitted
p876
(lp877
g39
asVgrayson
p878
(lp879
g25
ag90
ag89
ag84
ag88
asVstill
p880
(lp881
g45
asVroots
p882
(lp883
g93
ag37
asVbefore
p884
(lp885
g31
asVgroup
p886
(lp887
g27
ag29
ag31
ag31
ag45
ag92
asVthank
p888
(lp889
g90
ag90
asVla
p890
(lp891
g88
asVpersonal
p892
(lp893
g93
ag33
ag31
asV28
p894
(lp895
g84
ag84
asVcrew
p896
(lp897
g80
ag9
ag64
ag25
ag41
ag41
ag35
ag93
ag82
ag37
ag90
ag90
ag39
ag85
ag89
ag91
ag86
ag33
ag84
ag27
ag29
ag43
ag88
ag88
ag87
ag87
ag47
ag235
ag235
ag313
ag393
ag31
ag45
ag92
asVwilling
p898
(lp899
g37
asVcompelling
p900
(lp901
g64
ag90
ag91
ag84
asVchoose
p902
(lp903
g80
ag80
ag80
ag80
ag9
ag9
ag9
ag9
ag64
ag64
ag64
ag64
ag64
ag25
ag25
ag25
ag25
ag41
ag41
ag41
ag41
ag35
ag35
ag35
ag35
ag93
ag93
ag93
ag93
ag82
ag82
ag82
ag82
ag37
ag37
ag37
ag37
ag90
ag90
ag90
ag90
ag90
ag39
ag39
ag39
ag39
ag85
ag85
ag85
ag85
ag89
ag89
ag89
ag89
ag91
ag91
ag91
ag91
ag91
ag86
ag86
ag86
ag86
ag33
ag33
ag33
ag33
ag84
ag84
ag84
ag84
ag27
ag27
ag27
ag27
ag29
ag29
ag29
ag29
ag43
ag43
ag43
ag43
ag88
ag88
ag88
ag88
ag87
ag87
ag87
ag87
ag47
ag47
ag47
ag47
ag235
ag235
ag235
ag235
ag313
ag313
ag313
ag313
ag393
ag393
ag393
ag393
ag31
ag31
ag31
ag31
ag45
ag45
ag45
ag45
ag92
ag92
ag92
ag92
asV2013
p904
(lp905
g80
ag9
ag64
ag25
ag41
ag35
ag93
ag82
ag37
ag90
ag39
ag85
ag89
ag91
ag86
ag33
ag84
ag27
ag29
ag43
ag88
ag87
ag47
ag235
ag313
ag393
ag31
ag45
ag92
asVkemp
p906
(lp907
g88
asVthen
p908
(lp909
g64
asVthem
p910
(lp911
g41
asVreturn
p912
(lp913
g80
ag9
ag64
ag25
ag41
ag35
ag93
ag82
ag37
ag90
ag39
ag85
ag89
ag91
ag86
ag33
ag84
ag27
ag29
ag29
ag43
ag88
ag87
ag47
ag235
ag313
ag393
ag31
ag45
ag92
asVfinance
p914
(lp915
g27
ag31
asVviews
p916
(lp917
g93
asVlambert
p918
(lp919
g90
asVgalleria
p920
(lp921
g47
ag235
ag313
ag393
asVfinish
p922
(lp923
g25
ag93
asVadams
p924
(lp925
g88
asVthey
p926
(lp927
g29
asVcommunities
p928
(lp929
g64
ag90
ag91
asVnurturing
p930
(lp931
g27
asVnow
p932
(lp933
g93
asVadventurous
p934
(lp935
g25
ag45
asVjosh
p936
(lp937
g88
asVgregorio
p938
(lp939
g90
asVname
p940
(lp941
g91
asVestranged
p942
(lp943
g25
asVl
p944
(lp945
g9
ag29
asVtruth
p946
(lp947
g84
asVshowcasing
p948
(lp949
g25
asVtrailer
p950
(lp951
g80
ag9
ag64
ag25
ag41
ag35
ag93
ag82
ag37
ag90
ag39
ag85
ag85
ag89
ag91
ag86
ag33
ag84
ag27
ag29
ag43
ag88
ag87
ag47
ag235
ag313
ag393
ag31
ag45
ag92
asVeveryone
p952
(lp953
g25
asVfinancial
p954
(lp955
g64
ag33
asVlist
p956
(lp957
g91
asVglobe
p958
(lp959
g93
asVhard
p960
(lp961
g29
asVchallenges
p962
(lp963
g41
ag39
ag33
ag84
ag43
asVsociety
p964
(lp965
g43
ag45
asVgoogleanalyticsobject
p966
(lp967
g80
ag9
ag64
ag25
ag41
ag35
ag93
ag82
ag37
ag90
ag39
ag85
ag89
ag91
ag86
ag33
ag84
ag27
ag29
ag43
ag88
ag87
ag47
ag235
ag313
ag393
ag31
ag45
ag92
asVconnect
p968
(lp969
g80
ag9
ag64
ag64
ag25
ag41
ag35
ag35
ag93
ag82
ag37
ag90
ag39
ag85
ag89
ag91
ag86
ag33
ag84
ag27
ag29
ag43
ag88
ag87
ag47
ag235
ag313
ag393
ag31
ag45
ag92
asVour
p970
(lp971
g9
ag64
ag64
ag93
ag93
ag93
ag93
ag93
ag93
ag93
ag90
ag90
ag91
ag91
asVgirl
p972
(lp973
g93
asVbeyond
p974
(lp975
g64
ag41
ag33
asVspecial
p976
(lp977
g64
ag37
ag90
ag90
ag91
ag31
asVout
p978
(lp979
g9
ag93
ag90
ag90
ag84
ag84
asVtravels
p980
(lp981
g27
ag45
asVkagveker
p982
(lp983
g37
asVdriving
p984
(lp985
g33
asVhouse
p986
(lp987
g43
asVannounces
p988
(lp989
g93
asVcrucial
p990
(lp991
g41
asVyour
p992
(lp993
g80
ag80
ag80
ag80
ag9
ag9
ag9
ag9
ag64
ag64
ag64
ag64
ag64
ag25
ag25
ag25
ag25
ag41
ag41
ag41
ag41
ag35
ag35
ag35
ag35
ag93
ag93
ag93
ag93
ag93
ag82
ag82
ag82
ag82
ag37
ag37
ag37
ag37
ag90
ag90
ag90
ag90
ag39
ag39
ag39
ag39
ag85
ag85
ag85
ag85
ag89
ag89
ag89
ag89
ag91
ag91
ag91
ag91
ag86
ag86
ag86
ag86
ag33
ag33
ag33
ag33
ag84
ag84
ag84
ag84
ag27
ag27
ag27
ag27
ag29
ag29
ag29
ag29
ag43
ag43
ag43
ag43
ag88
ag88
ag88
ag88
ag87
ag87
ag87
ag87
ag47
ag47
ag47
ag47
ag235
ag235
ag235
ag235
ag313
ag313
ag313
ag313
ag393
ag393
ag393
ag393
ag31
ag31
ag31
ag31
ag45
ag45
ag45
ag45
ag92
ag92
ag92
ag92
asVstrangers
p994
(lp995
g84
asVre
p996
(lp997
g64
ag90
ag91
ag92
asVunforgettable
p998
(lp999
g93
asVsacramento
p1000
(lp1001
g84
asVforth
p1002
(lp1003
g84
asVcommon
p1004
(lp1005
g45
asVfoundation
p1006
(lp1007
g92
asVinteractions
p1008
(lp1009
g41
asVtense
p1010
(lp1011
g27
asVpageview
p1012
(lp1013
g80
ag9
ag64
ag25
ag41
ag35
ag93
ag82
ag37
ag90
ag39
ag85
ag89
ag91
ag86
ag33
ag84
ag27
ag29
ag43
ag88
ag87
ag47
ag235
ag313
ag393
ag31
ag45
ag92
asVlike
p1014
(lp1015
g45
asVpleasant
p1016
(lp1017
g31
asVancestry
p1018
(lp1019
g37
asVnisha
p1020
(lp1021
g9
ag25
ag25
ag25
ag25
ag25
ag25
ag41
ag41
ag41
ag41
ag35
ag35
ag93
ag93
ag37
ag39
ag39
ag39
ag89
ag33
ag33
ag84
ag84
ag84
ag84
ag84
ag27
ag29
ag43
ag88
ag31
ag45
asVmimi
p1022
(lp1023
g9
ag45
ag45
ag45
ag45
ag45
asVrandall
p1024
(lp1025
g90
asVg
p1026
(lp1027
g9
ag39
asVput
p1028
(lp1029
g31
asVdays
p1030
(lp1031
g27
asVtimes
p1032
(lp1033
g45
asVmotion
p1034
(lp1035
g88
asVliaison
p1036
(lp1037
g41
asVforging
p1038
(lp1039
g64
ag90
ag91
asVexhibited
p1040
(lp1041
g41
asVblood
p1042
(lp1043
g33
asVadoptees
p1044
(lp1045
g93
ag93
asVrooted
p1046
(lp1047
g39
asVevans
p1048
(lp1049
g90
asVblogger
p1050
(lp1051
g93
asVzac
p1052
(lp1053
g88
asVone
p1054
(lp1055
g41
ag35
ag35
ag33
ag33
asVintrospective
p1056
(lp1057
g84
asVart
p1058
(lp1059
g93
ag88
asVcomic
p1060
(lp1061
g27
asVstory
p1062
(lp1063
g64
ag90
ag91
ag84
asVscript
p1064
(lp1065
g80
ag80
ag80
ag9
ag9
ag9
ag64
ag64
ag64
ag25
ag25
ag25
ag41
ag41
ag41
ag35
ag35
ag35
ag93
ag93
ag93
ag82
ag82
ag82
ag37
ag37
ag37
ag90
ag90
ag90
ag39
ag39
ag39
ag85
ag85
ag85
ag89
ag89
ag89
ag91
ag91
ag91
ag86
ag86
ag86
ag33
ag33
ag33
ag84
ag84
ag84
ag27
ag27
ag27
ag29
ag29
ag29
ag43
ag43
ag43
ag88
ag88
ag88
ag87
ag87
ag87
ag47
ag47
ag47
ag235
ag235
ag235
ag313
ag313
ag313
ag393
ag393
ag393
ag31
ag31
ag31
ag45
ag45
ag45
ag92
ag92
ag92
asVtop
p1066
(lp1067
g80
ag9
ag64
ag25
ag41
ag35
ag93
ag82
ag37
ag90
ag39
ag85
ag89
ag91
ag86
ag33
ag84
ag27
ag29
ag43
ag88
ag87
ag47
ag235
ag313
ag393
ag31
ag45
ag92
asVadopted
p1068
(lp1069
g25
asVadoptee
p1070
(lp1071
g93
ag84
asVtheir
p1072
(lp1073
g35
ag43
ag43
ag45
ag45
ag45
asVidentity
p1074
(lp1075
g80
ag9
ag64
ag25
ag25
ag41
ag35
ag93
ag93
ag82
ag37
ag90
ag39
ag85
ag89
ag91
ag86
ag33
ag84
ag84
ag84
ag27
ag29
ag43
ag88
ag87
ag47
ag235
ag313
ag393
ag31
ag45
ag92
asVpains
p1076
(lp1077
g25
asVjohn
p1078
(lp1079
g90
asVfriend
p1080
(lp1081
g41
ag33
ag27
ag29
ag88
ag31
asVlisten
p1082
(lp1083
g93
asVfiery
p1084
(lp1085
g33
asVrelationship
p1086
(lp1087
g41
asVthat
p1088
(lp1089
g25
ag41
ag35
ag35
ag37
ag39
ag33
ag84
ag84
ag43
ag31
ag92
ag92
asVheritage
p1090
(lp1091
g27
asVstudies
p1092
(lp1093
g39
asVposter
p1094
(lp1095
g88
asVforward
p1096
(lp1097
g33
asVpart
p1098
(lp1099
g64
ag90
ag91
ag92
asVloving
p1100
(lp1101
g43
asVcopy
p1102
(lp1103
g64
asVappreciated
p1104
(lp1105
g90
asVlucas
p1106
(lp1107
g88
asVkind
p1108
(lp1109
g35
ag29
asVben
p1110
(lp1111
g88
asVshowed
p1112
(lp1113
g41
ag45
asVpatriarchic
p1114
(lp1115
g43
asVchenette
p1116
(lp1117
g88
asVproject
p1118
(lp1119
g93
ag93
ag33
ag31
asVmatter
p1120
(lp1121
g90
asVfuture
p1122
(lp1123
g25
asVproviding
p1124
(lp1125
g27
ag43
ag43
asVmigration
p1126
(lp1127
g37
asVand
p1128
(lp1129
g64
ag64
ag64
ag64
ag64
ag25
ag25
ag25
ag25
ag25
ag25
ag41
ag41
ag41
ag41
ag41
ag41
ag35
ag35
ag93
ag93
ag93
ag93
ag93
ag93
ag37
ag37
ag37
ag37
ag37
ag37
ag90
ag90
ag90
ag90
ag90
ag90
ag39
ag39
ag39
ag39
ag39
ag39
ag91
ag33
ag33
ag33
ag33
ag33
ag84
ag84
ag84
ag84
ag84
ag84
ag84
ag84
ag84
ag84
ag27
ag27
ag27
ag27
ag29
ag29
ag29
ag43
ag43
ag43
ag43
ag43
ag43
ag88
ag31
ag45
ag45
ag45
ag45
ag45
ag92
asVbridge
p1130
(lp1131
g41
asVana
p1132
(lp1133
g90
asVcohen
p1134
(lp1135
g88
asVnaik
p1136
(lp1137
g35
asVmind
p1138
(lp1139
g84
asVsay
p1140
(lp1141
g93
asVgala
p1142
(lp1143
g93
asVhave
p1144
(lp1145
g93
ag90
ag92
asVneed
p1146
(lp1147
g64
ag93
asVaged
p1148
(lp1149
g37
asVkevin
p1150
(lp1151
g93
ag90
asVray
p1152
(lp1153
g90
ag90
ag89
ag33
ag27
ag88
ag88
asVshowcased
p1154
(lp1155
g35
asVgenuine
p1156
(lp1157
g25
ag41
asVself
p1158
(lp1159
g25
ag45
asVanswering
p1160
(lp1161
g35
asVeubank
p1162
(lp1163
g88
asVinvestment
p1164
(lp1165
g90
asValso
p1166
(lp1167
g31
ag45
asVsquad
p1168
(lp1169
g9
asVwhich
p1170
(lp1171
g35
asVshowcases
p1172
(lp1173
g37
ag31
asVbailey
p1174
(lp1175
g93
asVkoream
p1176
(lp1177
g93
asVencouraged
p1178
(lp1179
g33
asVpain
p1180
(lp1181
g84
asVadversities
p1182
(lp1183
g33
asVwho
p1184
(lp1185
g41
ag41
ag90
ag84
ag29
ag31
ag45
asVlooming
p1186
(lp1187
g29
asVmost
p1188
(lp1189
g41
ag41
ag35
ag27
ag27
asVdonation
p1190
(lp1191
g90
asVexperiences
p1192
(lp1193
g93
ag84
asVamongst
p1194
(lp1195
g31
asVsignificant
p1196
(lp1197
g41
ag27
asVservices
p1198
(lp1199
g93
asVgrateful
p1200
(lp1201
g90
asVmarie
p1202
(lp1203
g90
asVuk
p1204
(lp1205
g45
asVpremdas
p1206
(lp1207
g90
asVdon
p1208
(lp1209
g64
ag90
ag91
asVreinforcement
p1210
(lp1211
g27
asVmobile
p1212
(lp1213
g91
asVconsumed
p1214
(lp1215
g45
asVtraditional
p1216
(lp1217
g39
asVdeclassified
p1218
(lp1219
g93
asVreflections
p1220
(lp1221
g35
asVfjs
p1222
(lp1223
g80
ag80
ag9
ag9
ag64
ag64
ag25
ag25
ag41
ag41
ag35
ag35
ag93
ag93
ag82
ag82
ag37
ag37
ag90
ag90
ag39
ag39
ag85
ag85
ag89
ag89
ag91
ag91
ag86
ag86
ag33
ag33
ag84
ag84
ag27
ag27
ag29
ag29
ag43
ag43
ag88
ag88
ag87
ag87
ag47
ag47
ag235
ag235
ag313
ag313
ag393
ag393
ag31
ag31
ag45
ag45
ag92
ag92
asVprofessional
p1224
(lp1225
g33
asVentertaining
p1226
(lp1227
g45
asVmailing
p1228
(lp1229
g91
asV43760859
p1230
(lp1231
g80
ag9
ag64
ag25
ag41
ag35
ag93
ag82
ag37
ag90
ag39
ag85
ag89
ag91
ag86
ag33
ag84
ag27
ag29
ag43
ag88
ag87
ag47
ag235
ag313
ag393
ag31
ag45
ag92
asVjoining
p1232
(lp1233
g64
asVinspire
p1234
(lp1235
g90
asVpreproduction
p1236
(lp1237
g31
asVsaga
p1238
(lp1239
g84
asVtext
p1240
(lp1241
g91
asVdiscovered
p1242
(lp1243
g39
asVbring
p1244
(lp1245
g64
ag90
ag91
asVplanning
p1246
(lp1247
g29
asVfind
p1248
(lp1249
g9
ag84
asVcompletion
p1250
(lp1251
g33
asVinspiring
p1252
(lp1253
g33
ag84
ag27
asVtrying
p1254
(lp1255
g27
asVknowledge
p1256
(lp1257
g41
ag37
ag39
asVdawn
p1258
(lp1259
g88
asVwith
p1260
(lp1261
g64
ag64
ag64
ag25
ag25
ag25
ag41
ag41
ag41
ag35
ag93
ag93
ag37
ag37
ag39
ag39
ag39
ag84
ag84
ag84
ag84
ag84
ag29
ag29
ag43
ag43
ag31
ag31
ag45
ag45
asVranda
p1262
(lp1263
g90
asVshort
p1264
(lp1265
g84
asVhere
p1266
(lp1267
g90
ag92
asVbeing
p1268
(lp1269
g33
asVtheme
p1270
(lp1271
g41
asVdeepest
p1272
(lp1273
g25
ag41
asVrich
p1274
(lp1275
g35
ag39
asVpursuing
p1276
(lp1277
g84
asVposted
p1278
(lp1279
g93
ag93
asVlocal
p1280
(lp1281
g35
ag45
asVhope
p1282
(lp1283
g90
ag84
asVdo
p1284
(lp1285
g64
asVhis
p1286
(lp1287
g41
ag41
ag35
ag35
ag37
ag37
ag39
ag39
ag29
ag29
ag31
ag31
ag31
asVklein
p1288
(lp1289
g90
asVmeans
p1290
(lp1291
g33
asVassistant
p1292
(lp1293
g88
ag88
asVrest
p1294
(lp1295
g29
asVprogress
p1296
(lp1297
g84
asVduring
p1298
(lp1299
g35
ag93
ag39
ag27
ag29
ag31
asVconsiderate
p1300
(lp1301
g35
asVroles
p1302
(lp1303
g33
asVartist
p1304
(lp1305
g35
asVvollmers
p1306
(lp1307
g93
ag90
asVshe
p1308
(lp1309
g37
ag33
ag33
ag84
ag84
ag43
ag43
asVrelease
p1310
(lp1311
g93
asVscott
p1312
(lp1313
g90
asVamanda
p1314
(lp1315
g93
asVhusband
p1316
(lp1317
g43
asVview
p1318
(lp1319
g80
ag9
ag64
ag25
ag41
ag35
ag93
ag82
ag37
ag37
ag90
ag39
ag85
ag89
ag91
ag86
ag33
ag84
ag27
ag29
ag43
ag88
ag87
ag47
ag235
ag313
ag393
ag31
ag45
ag92
asVethical
p1320
(lp1321
g93
asVset
p1322
(lp1323
g84
asVinns
p1324
(lp1325
g35
asVdecided
p1326
(lp1327
g92
asVconnections
p1328
(lp1329
g25
ag25
asVculture
p1330
(lp1331
g35
ag39
asVkeenan
p1332
(lp1333
g90
asVactively
p1334
(lp1335
g29
asVare
p1336
(lp1337
g25
ag93
ag92
asVpacked
p1338
(lp1339
g84
asVsubject
p1340
(lp1341
g89
asVreform
p1342
(lp1343
g93
asVjoys
p1344
(lp1345
g25
asVplease
p1346
(lp1347
g92
asVenough
p1348
(lp1349
g45
asVdetermined
p1350
(lp1351
g39
ag33
asVmelissa
p1352
(lp1353
g93
asVbetween
p1354
(lp1355
g41
ag39
asVcomplications
p1356
(lp1357
g33
asVdonate
p1358
(lp1359
g80
ag9
ag64
ag25
ag41
ag35
ag93
ag82
ag37
ag90
ag90
ag90
ag39
ag85
ag89
ag91
ag86
ag33
ag84
ag27
ag29
ag43
ag88
ag87
ag47
ag235
ag313
ag393
ag31
ag45
ag92
asVemail
p1360
(lp1361
g91
ag91
asVability
p1362
(lp1363
g31
asVnature
p1364
(lp1365
g35
ag37
asVkristal
p1366
(lp1367
g93
asVattention
p1368
(lp1369
g35
asVjs
p1370
(lp1371
g80
ag80
ag9
ag9
ag64
ag64
ag25
ag25
ag41
ag41
ag35
ag35
ag93
ag93
ag82
ag82
ag37
ag37
ag90
ag90
ag39
ag39
ag85
ag85
ag89
ag89
ag91
ag91
ag86
ag86
ag33
ag33
ag84
ag84
ag27
ag27
ag29
ag29
ag43
ag43
ag88
ag88
ag87
ag87
ag47
ag47
ag235
ag235
ag313
ag313
ag393
ag393
ag31
ag31
ag45
ag45
ag92
ag92
asVjob
p1372
(lp1373
g29
asVanswers
p1374
(lp1375
g25
ag41
ag84
asVkey
p1376
(lp1377
g25
asVdedication
p1378
(lp1379
g33
asVcome
p1380
(lp1381
g84
ag84
asVperkins
p1382
(lp1383
g88
asVboth
p1384
(lp1385
g33
asVlookbook
p1386
(lp1387
g47
ag235
ag313
ag393
asVinvited
p1388
(lp1389
g64
ag90
ag91
asVjanela
p1390
(lp1391
g88
asVs
p1392
(lp1393
g80
ag9
ag64
ag64
ag25
ag25
ag41
ag41
ag41
ag35
ag35
ag35
ag93
ag93
ag93
ag93
ag82
ag37
ag90
ag90
ag90
ag90
ag39
ag39
ag85
ag89
ag91
ag86
ag33
ag33
ag84
ag84
ag84
ag27
ag27
ag27
ag29
ag29
ag43
ag43
ag43
ag88
ag87
ag47
ag235
ag313
ag393
ag31
ag45
ag45
ag92
asVbrad
p1394
(lp1395
g93
ag89
ag88
ag92
asVcomes
p1396
(lp1397
g84
ag84
asVcomment
p1398
(lp1399
g80
ag9
ag64
ag25
ag41
ag35
ag93
ag82
ag37
ag90
ag39
ag85
ag89
ag91
ag91
ag91
ag86
ag33
ag84
ag27
ag29
ag43
ag88
ag87
ag47
ag235
ag313
ag393
ag31
ag45
ag92
asVbell
p1400
(lp1401
g93
asVsimple
p1402
(lp1403
g37
ag90
asVhad
p1404
(lp1405
g41
ag93
ag84
asVca
p1406
(lp1407
g84
asVcommunity
p1408
(lp1409
g41
asV2nd
p1410
(lp1411
g88
asVsubscribe
p1412
(lp1413
g91
asVvillage
p1414
(lp1415
g35
asVtony
p1416
(lp1417
g9
ag41
ag41
ag41
ag41
ag41
ag41
ag41
ag43
ag45
asVopenness
p1418
(lp1419
g37
asVtrust
p1420
(lp1421
g41
asVepitome
p1422
(lp1423
g33
asVnicole
p1424
(lp1425
g90
asVcaring
p1426
(lp1427
g41
asVperspectives
p1428
(lp1429
g41
asVkimberly
p1430
(lp1431
g90
asVcreate
p1432
(lp1433
g80
ag9
ag64
ag25
ag41
ag35
ag93
ag82
ag37
ag90
ag39
ag85
ag89
ag91
ag86
ag33
ag84
ag84
ag27
ag29
ag43
ag88
ag87
ag47
ag235
ag313
ag393
ag31
ag45
ag92
asVclassic
p1434
(lp1435
g47
ag235
ag313
ag393
asVmuch
p1436
(lp1437
g33
ag27
asVinterest
p1438
(lp1439
g41
ag43
ag45
asVextends
p1440
(lp1441
g64
asVmeeting
p1442
(lp1443
g41
asVwarmth
p1444
(lp1445
g45
asVlife
p1446
(lp1447
g41
ag43
asVlived
p1448
(lp1449
g37
ag39
asVdiversity
p1450
(lp1451
g93
asVandrew
p1452
(lp1453
g88
asVnew
p1454
(lp1455
g29
asVgap
p1456
(lp1457
g41
asVcenterpiece
p1458
(lp1459
g25
asVdetermination
p1460
(lp1461
g84
asVgraphics
p1462
(lp1463
g88
asVwhen
p1464
(lp1465
g84
ag84
asVextensive
p1466
(lp1467
g39
asVpresent
p1468
(lp1469
g25
ag41
asVwelcoming
p1470
(lp1471
g37
asVlook
p1472
(lp1473
g93
asVchoices
p1474
(lp1475
g29
asVwill
p1476
(lp1477
g84
asVongoing
p1478
(lp1479
g90
asVovercome
p1480
(lp1481
g33
asVfun
p1482
(lp1483
g29
ag31
asVrinny
p1484
(lp1485
g88
asVvoice
p1486
(lp1487
g93
asVunlikely
p1488
(lp1489
g84
asVforce
p1490
(lp1491
g33
asVplayed
p1492
(lp1493
g33
asVis
p1494
(lp1495
g64
ag64
ag25
ag25
ag25
ag25
ag41
ag41
ag35
ag93
ag90
ag90
ag39
ag39
ag33
ag33
ag33
ag33
ag84
ag84
ag27
ag27
ag29
ag43
ag31
ag31
ag45
asVlush
p1496
(lp1497
g39
asVit
p1498
(lp1499
g64
ag93
ag90
ag90
ag90
ag39
ag33
ag33
ag84
ag84
ag84
asVencouragement
p1500
(lp1501
g29
asVhelped
p1502
(lp1503
g35
ag33
asVitself
p1504
(lp1505
g25
asVoptimistic
p1506
(lp1507
g25
asVin
p1508
(lp1509
g25
ag25
ag25
ag25
ag41
ag41
ag35
ag93
ag93
ag37
ag39
ag84
ag84
ag84
ag84
ag84
ag84
ag29
ag43
ag43
ag43
ag31
ag31
ag45
ag45
asVready
p1510
(lp1511
g64
asVmotivated
p1512
(lp1513
g41
asVid
p1514
(lp1515
g80
ag80
ag9
ag9
ag64
ag64
ag25
ag25
ag41
ag41
ag35
ag35
ag93
ag93
ag82
ag82
ag37
ag37
ag90
ag90
ag39
ag39
ag85
ag85
ag89
ag89
ag91
ag91
ag86
ag86
ag33
ag33
ag84
ag84
ag27
ag27
ag29
ag29
ag43
ag43
ag88
ag88
ag87
ag87
ag47
ag47
ag235
ag235
ag313
ag313
ag393
ag393
ag31
ag31
ag45
ag45
ag92
ag92
asVaround
p1516
(lp1517
g93
asVshar
p1518
(lp1519
g33
asVbags
p1520
(lp1521
g84
asVdescent
p1522
(lp1523
g31
asVperhaps
p1524
(lp1525
g45
asVmedia
p1526
(lp1527
g88
ag88
asVmake
p1528
(lp1529
g64
asVconnection
p1530
(lp1531
g39
asVtrip
p1532
(lp1533
g31
asVunity
p1534
(lp1535
g93
asVcomplex
p1536
(lp1537
g25
asVfollowers
p1538
(lp1539
g25
asVdifficult
p1540
(lp1541
g29
asVstatus
p1542
(lp1543
g37
asVindependent
p1544
(lp1545
g93
asVhaebeom
p1546
(lp1547
g93
ag90
asVliterature
p1548
(lp1549
g93
asVhttp
p1550
(lp1551
g80
ag9
ag64
ag25
ag41
ag35
ag93
ag82
ag37
ag90
ag39
ag85
ag89
ag91
ag86
ag33
ag84
ag27
ag29
ag43
ag88
ag87
ag47
ag235
ag313
ag393
ag31
ag45
ag92
asVclosest
p1552
(lp1553
g84
asVsamantha
p1554
(lp1555
g90
asVfaces
p1556
(lp1557
g84
ag29
ag31
asVupon
p1558
(lp1559
g41
asVdiffering
p1560
(lp1561
g41
asVhand
p1562
(lp1563
g92
asVdirector
p1564
(lp1565
g89
ag88
asVopportunity
p1566
(lp1567
g64
asVwarming
p1568
(lp1569
g35
asVoff
p1570
(lp1571
g84
asVreflection
p1572
(lp1573
g25
asVstephanie
p1574
(lp1575
g90
asVcontest
p1576
(lp1577
g93
ag93
asVsynopsis
p1578
(lp1579
g84
asVcontact
p1580
(lp1581
g80
ag9
ag64
ag25
ag41
ag35
ag93
ag82
ag37
ag90
ag39
ag85
ag89
ag89
ag91
ag86
ag33
ag84
ag27
ag29
ag43
ag88
ag87
ag47
ag235
ag313
ag393
ag31
ag45
ag92
ag92
asVchronicles
p1582
(lp1583
g84
asVrelief
p1584
(lp1585
g27
asVmother
p1586
(lp1587
g25
ag35
ag93
ag84
asVthe
p1588
(lp1589
g9
ag64
ag64
ag64
ag64
ag64
ag64
ag25
ag25
ag25
ag25
ag25
ag25
ag25
ag41
ag41
ag41
ag41
ag41
ag41
ag41
ag41
ag41
ag41
ag41
ag41
ag41
ag35
ag35
ag35
ag35
ag35
ag93
ag93
ag93
ag93
ag93
ag93
ag93
ag37
ag37
ag37
ag90
ag90
ag90
ag90
ag90
ag90
ag90
ag90
ag39
ag39
ag39
ag39
ag39
ag91
ag33
ag33
ag33
ag33
ag33
ag84
ag84
ag84
ag84
ag84
ag84
ag84
ag27
ag27
ag27
ag27
ag29
ag29
ag29
ag29
ag29
ag29
ag29
ag43
ag43
ag43
ag31
ag31
ag31
ag31
ag31
ag31
ag31
ag45
ag45
ag45
asVaudio
p1590
(lp1591
g88
asVambassador
p1592
(lp1593
g64
ag45
asVresponsible
p1594
(lp1595
g43
asVklemestrud
p1596
(lp1597
g90
asVtraditions
p1598
(lp1599
g39
asVjust
p1600
(lp1601
g64
ag90
ag91
ag33
ag84
asVmoments
p1602
(lp1603
g35
ag27
asVknowledgeable
p1604
(lp1605
g37
ag31
asVvaluable
p1606
(lp1607
g39
asVunderlying
p1608
(lp1609
g41
ag84
asVthanks
p1610
(lp1611
g64
asVquestions
p1612
(lp1613
g41
ag35
ag84
ag84
asVworld
p1614
(lp1615
g64
ag64
ag25
ag41
ag37
asVmove
p1616
(lp1617
g45
asVgenerous
p1618
(lp1619
g90
asVcut
p1620
(lp1621
g27
asVfamily
p1622
(lp1623
g80
ag9
ag9
ag64
ag25
ag41
ag41
ag35
ag93
ag93
ag82
ag37
ag90
ag90
ag90
ag90
ag90
ag39
ag85
ag89
ag91
ag86
ag33
ag84
ag84
ag84
ag27
ag29
ag43
ag43
ag88
ag87
ag47
ag235
ag313
ag393
ag31
ag31
ag31
ag45
ag92
asVjssdk
p1624
(lp1625
g80
ag9
ag64
ag25
ag41
ag35
ag93
ag82
ag37
ag90
ag39
ag85
ag89
ag91
ag86
ag33
ag84
ag27
ag29
ag43
ag88
ag87
ag47
ag235
ag313
ag393
ag31
ag45
ag92
asVnoah
p1626
(lp1627
g88
asVcharacter
p1628
(lp1629
g25
ag84
asVday
p1630
(lp1631
g93
ag33
asVblog
p1632
(lp1633
g93
ag93
ag93
asVsource
p1634
(lp1635
g41
asVshout
p1636
(lp1637
g90
asVspread
p1638
(lp1639
g93
asVadoption
p1640
(lp1641
g93
ag93
ag93
ag84
asVeasy
p1642
(lp1643
g64
asVtechnological
p1644
(lp1645
g39
asVtax
p1646
(lp1647
g90
asVhas
p1648
(lp1649
g93
asVnate
p1650
(lp1651
g88
asVtests
p1652
(lp1653
g84
asVcaptivating
p1654
(lp1655
g35
asVfate
p1656
(lp1657
g35
asVformat
p1658
(lp1659
g91
asVread
p1660
(lp1661
g93
asVshowing
p1662
(lp1663
g41
asVpossible
p1664
(lp1665
g29
asVearly
p1666
(lp1667
g29
ag31
asVfinding
p1668
(lp1669
g35
asVproceeds
p1670
(lp1671
g31
asVquest
p1672
(lp1673
g25
ag41
ag84
asVknow
p1674
(lp1675
g35
asVbirth
p1676
(lp1677
g25
ag35
ag39
ag84
asVpress
p1678
(lp1679
g80
ag9
ag64
ag25
ag41
ag35
ag93
ag93
ag93
ag82
ag37
ag90
ag39
ag85
ag89
ag91
ag86
ag33
ag84
ag27
ag29
ag43
ag88
ag87
ag47
ag235
ag313
ag393
ag31
ag45
ag92
asVimmediately
p1680
(lp1681
g41
asVunique
p1682
(lp1683
g37
asVrebecca
p1684
(lp1685
g90
asVcolor
p1686
(lp1687
g88
asVhelpful
p1688
(lp1689
g37
ag39
asVgift
p1690
(lp1691
g80
ag9
ag64
ag64
ag25
ag41
ag35
ag93
ag82
ag37
ag90
ag90
ag39
ag85
ag89
ag91
ag86
ag33
ag84
ag27
ag29
ag43
ag88
ag87
ag47
ag235
ag313
ag393
ag31
ag45
ag92
asVinviting
p1692
(lp1693
g25
ag35
asVgifted
p1694
(lp1695
g90
asVhtml
p1696
(lp1697
g91
asVserves
p1698
(lp1699
g41
asVaudience
p1700
(lp1701
g93
asVcontinue
p1702
(lp1703
g29
ag31
asVdonations
p1704
(lp1705
g90
asVt
p1706
(lp1707
g64
ag90
ag91
asVevolutions
p1708
(lp1709
g39
asVserved
p1710
(lp1711
g39
ag45
asVnice
p1712
(lp1713
g31
asVmaking
p1714
(lp1715
g29
asVright
p1716
(lp1717
g84
asVpeople
p1718
(lp1719
g37
ag90
ag87
ag47
asVhumorous
p1720
(lp1721
g41
asVtwitter
p1722
(lp1723
g80
ag9
ag64
ag64
ag25
ag41
ag35
ag93
ag82
ag37
ag90
ag39
ag85
ag89
ag91
ag86
ag33
ag84
ag27
ag29
ag43
ag88
ag87
ag47
ag235
ag313
ag393
ag31
ag45
ag92
asVsequeira
p1724
(lp1725
g93
asVsome
p1726
(lp1727
g92
asVback
p1728
(lp1729
g80
ag9
ag64
ag25
ag25
ag41
ag41
ag35
ag35
ag93
ag82
ag37
ag37
ag90
ag39
ag39
ag85
ag89
ag91
ag86
ag33
ag33
ag84
ag84
ag27
ag27
ag29
ag29
ag43
ag43
ag88
ag87
ag47
ag47
ag235
ag235
ag313
ag313
ag393
ag393
ag31
ag31
ag45
ag45
ag92
asVtumblr
p1730
(lp1731
g64
ag86
asVborn
p1732
(lp1733
g25
ag39
asVproductions
p1734
(lp1735
g80
ag9
ag64
ag25
ag41
ag35
ag93
ag82
ag37
ag90
ag39
ag85
ag89
ag91
ag86
ag33
ag84
ag27
ag29
ag43
ag88
ag87
ag47
ag235
ag313
ag393
ag31
ag45
ag92
asVduration
p1736
(lp1737
g41
asVhome
p1738
(lp1739
g80
ag9
ag64
ag25
ag41
ag35
ag93
ag93
ag82
ag37
ag37
ag90
ag39
ag85
ag89
ag91
ag86
ag33
ag84
ag84
ag27
ag29
ag43
ag43
ag88
ag87
ag47
ag235
ag313
ag393
ag31
ag45
ag92
asVunrivaled
p1740
(lp1741
g33
asVthroughout
p1742
(lp1743
g41
ag27
ag45
asVlead
p1744
(lp1745
g64
ag64
ag90
ag91
ag84
asVbroad
p1746
(lp1747
g37
asVlend
p1748
(lp1749
g92
asVcreative
p1750
(lp1751
g33
ag27
asVwitty
p1752
(lp1753
g27
asVappreciative
p1754
(lp1755
g90
asVlara
p1756
(lp1757
g90
ag29
asVlandscape
p1758
(lp1759
g87
ag393
asVprovides
p1760
(lp1761
g37
ag43
asVsteps
p1762
(lp1763
g84
asVforks
p1764
(lp1765
g84
asVleader
p1766
(lp1767
g64
ag33
asVbe
p1768
(lp1769
g64
ag64
ag64
ag90
ag91
asVpatient
p1770
(lp1771
g29
asVhitesh
p1772
(lp1773
g9
ag31
ag31
ag31
ag31
ag31
asVmarketing
p1774
(lp1775
g88
ag88
ag88
asVpressure
p1776
(lp1777
g31
asVstep
p1778
(lp1779
g31
asVfractured
p1780
(lp1781
g90
asVfrom
p1782
(lp1783
g25
ag41
ag93
ag37
ag37
ag33
ag33
ag33
ag84
ag84
ag84
ag27
ag29
ag31
ag31
asVpost
p1784
(lp1785
g88
ag88
asVpaste
p1786
(lp1787
g64
asVby
p1788
(lp1789
g64
ag41
ag93
ag93
ag37
ag90
ag45
asVraise
p1790
(lp1791
g93
asVon
p1792
(lp1793
g64
ag64
ag25
ag25
ag93
ag93
ag93
ag37
ag33
ag84
ag29
ag43
asVabout
p1794
(lp1795
g9
ag25
ag41
ag35
ag35
ag93
ag93
ag93
ag93
ag93
ag93
ag39
ag84
asVwould
p1796
(lp1797
g92
asVorigins
p1798
(lp1799
g39
asVobi
p1800
(lp1801
g90
asVof
p1802
(lp1803
g64
ag64
ag64
ag25
ag25
ag25
ag41
ag41
ag35
ag35
ag35
ag93
ag93
ag37
ag90
ag90
ag39
ag39
ag39
ag91
ag33
ag33
ag33
ag84
ag84
ag84
ag84
ag84
ag84
ag27
ag29
ag29
ag29
ag29
ag43
ag31
ag31
ag92
asVidu
p1804
(lp1805
g93
ag93
asVasha
p1806
(lp1807
g90
asVboldly
p1808
(lp1809
g41
asVsweat
p1810
(lp1811
g33
asVmixed
p1812
(lp1813
g93
asVconnected
p1814
(lp1815
g45
ag45
asVefforts
p1816
(lp1817
g29
ag31
asVdocumentary
p1818
(lp1819
g80
ag9
ag64
ag25
ag41
ag35
ag93
ag82
ag37
ag90
ag39
ag85
ag89
ag91
ag86
ag33
ag84
ag27
ag29
ag43
ag88
ag87
ag47
ag235
ag313
ag393
ag31
ag45
ag92
asVor
p1820
(lp1821
g80
ag80
ag80
ag80
ag80
ag9
ag9
ag9
ag9
ag9
ag64
ag64
ag64
ag64
ag64
ag25
ag25
ag25
ag25
ag25
ag41
ag41
ag41
ag41
ag41
ag35
ag35
ag35
ag35
ag35
ag93
ag93
ag93
ag93
ag93
ag82
ag82
ag82
ag82
ag82
ag37
ag37
ag37
ag37
ag37
ag90
ag90
ag90
ag90
ag90
ag90
ag39
ag39
ag39
ag39
ag39
ag85
ag85
ag85
ag85
ag85
ag89
ag89
ag89
ag89
ag89
ag91
ag91
ag91
ag91
ag91
ag86
ag86
ag86
ag86
ag86
ag33
ag33
ag33
ag33
ag33
ag84
ag84
ag84
ag84
ag84
ag27
ag27
ag27
ag27
ag27
ag29
ag29
ag29
ag29
ag29
ag29
ag43
ag43
ag43
ag43
ag43
ag88
ag88
ag88
ag88
ag88
ag87
ag87
ag87
ag87
ag87
ag47
ag47
ag47
ag47
ag47
ag235
ag235
ag235
ag235
ag235
ag313
ag313
ag313
ag313
ag313
ag393
ag393
ag393
ag393
ag393
ag31
ag31
ag31
ag31
ag31
ag45
ag45
ag45
ag45
ag45
ag92
ag92
ag92
ag92
ag92
ag92
asVblock
p1822
(lp1823
g80
ag9
ag64
ag25
ag41
ag35
ag93
ag82
ag37
ag90
ag39
ag85
ag89
ag91
ag86
ag33
ag84
ag27
ag29
ag43
ag88
ag87
ag47
ag235
ag313
ag393
ag31
ag45
ag92
asVida
p1824
(lp1825
g9
ag43
ag43
ag43
ag45
asVdisclosure
p1826
(lp1827
g25
asVfundraising
p1828
(lp1829
g93
ag29
ag31
asVinto
p1830
(lp1831
g25
ag25
ag41
ag37
ag37
asVwithin
p1832
(lp1833
g43
ag43
asVcommitment
p1834
(lp1835
g39
ag33
ag84
ag84
ag31
asVgomes
p1836
(lp1837
g39
asVinvolvement
p1838
(lp1839
g41
asVfemale
p1840
(lp1841
g43
asVnext
p1842
(lp1843
g31
asVresilience
p1844
(lp1845
g80
ag9
ag64
ag25
ag41
ag35
ag93
ag82
ag37
ag90
ag39
ag85
ag89
ag91
ag86
ag33
ag84
ag84
ag84
ag27
ag29
ag43
ag88
ag87
ag47
ag235
ag313
ag393
ag31
ag45
ag92
asVsanvidge
p1846
(lp1847
g90
asV1983
p1848
(lp1849
g25
asVher
p1850
(lp1851
g25
ag25
ag25
ag25
ag25
ag25
ag41
ag35
ag35
ag93
ag93
ag93
ag93
ag37
ag39
ag39
ag39
ag33
ag33
ag33
ag84
ag84
ag84
ag84
ag84
ag84
ag84
ag84
ag84
ag43
ag43
ag45
ag45
ag45
asVarea
p1852
(lp1853
g39
asVsupport
p1854
(lp1855
g64
ag41
ag90
ag27
ag31
asVdaniels
p1856
(lp1857
g90
asVpartnership
p1858
(lp1859
g90
asVlong
p1860
(lp1861
g27
asVstart
p1862
(lp1863
g25
ag29
asVconservation
p1864
(lp1865
g39
asVeditor
p1866
(lp1867
g88
ag88
ag88
asVseries
p1868
(lp1869
g84
asVvar
p1870
(lp1871
g80
ag9
ag64
ag25
ag41
ag35
ag93
ag82
ag37
ag90
ag39
ag85
ag89
ag91
ag86
ag33
ag84
ag27
ag29
ag43
ag88
ag87
ag47
ag235
ag313
ag393
ag31
ag45
ag92
asVwas
p1872
(lp1873
g41
ag35
ag37
ag39
ag39
ag33
ag84
ag29
ag29
asVtireless
p1874
(lp1875
g41
asVfunds
p1876
(lp1877
g93
ag93
asVextended
p1878
(lp1879
g41
asVlink
p1880
(lp1881
g64
ag90
asVlinh
p1882
(lp1883
g90
asVpodcast
p1884
(lp1885
g93
asVtrue
p1886
(lp1887
g25
ag84
ag43
asVraising
p1888
(lp1889
g93
asVhe
p1890
(lp1891
g41
ag41
ag37
ag37
asVmade
p1892
(lp1893
g90
asVwise
p1894
(lp1895
g39
asVjoelson
p1896
(lp1897
g90
asVplaces
p1898
(lp1899
g87
ag313
asVwhether
p1900
(lp1901
g29
asVlorelei
p1902
(lp1903
g90
asVchaperone
p1904
(lp1905
g41
asVup
p1906
(lp1907
g45
asVus
p1908
(lp1909
g64
ag64
ag25
ag93
ag29
ag92
asVbelow
p1910
(lp1911
g64
asVeconomic
p1912
(lp1913
g39
asVstories
p1914
(lp1915
g93
ag93
asVmature
p1916
(lp1917
g43
asVemotional
p1918
(lp1919
g25
ag84
ag27
ag31
asVstages
p1920
(lp1921
g29
ag31
asVua
p1922
(lp1923
g80
ag9
ag64
ag25
ag41
ag35
ag93
ag82
ag37
ag90
ag39
ag85
ag89
ag91
ag86
ag33
ag84
ag27
ag29
ag43
ag88
ag87
ag47
ag235
ag313
ag393
ag31
ag45
ag92
asVsupervisor
p1924
(lp1925
g88
ag88
ag88
asVexpedition
p1926
(lp1927
g25
asVdirection
p1928
(lp1929
g84
asVdeep
p1930
(lp1931
g93
ag37
ag84
asVan
p1932
(lp1933
g64
ag93
ag90
ag84
ag84
ag43
asVsibling
p1934
(lp1935
g33
asVas
p1936
(lp1937
g41
ag41
ag41
ag39
ag33
ag33
ag33
ag29
ag43
ag45
ag45
asVexist
p1938
(lp1939
g43
asVat
p1940
(lp1941
g35
ag35
ag93
ag45
asVcurious
p1942
(lp1943
g45
asVcheck
p1944
(lp1945
g93
ag93
asVfilm
p1946
(lp1947
g64
ag25
ag25
ag41
ag93
ag93
ag93
ag93
ag93
ag93
ag90
ag90
ag90
ag33
asVmultiracial
p1948
(lp1949
g27
asVincredible
p1950
(lp1951
g64
ag90
ag91
asVauthoritative
p1952
(lp1953
g43
asVfears
p1954
(lp1955
g25
asVbrings
p1956
(lp1957
g84
asVforge
p1958
(lp1959
g33
asVyou
p1960
(lp1961
g80
ag80
ag9
ag9
ag64
ag64
ag64
ag64
ag64
ag64
ag25
ag25
ag25
ag41
ag41
ag41
ag35
ag35
ag93
ag93
ag93
ag93
ag82
ag82
ag37
ag37
ag90
ag90
ag90
ag90
ag90
ag90
ag39
ag39
ag85
ag85
ag89
ag89
ag91
ag91
ag91
ag86
ag86
ag33
ag33
ag33
ag84
ag84
ag84
ag84
ag84
ag27
ag27
ag27
ag29
ag29
ag29
ag43
ag43
ag88
ag88
ag87
ag87
ag47
ag47
ag235
ag235
ag313
ag313
ag393
ag393
ag31
ag31
ag45
ag45
ag92
ag92
ag92
asVartistic
p1962
(lp1963
g35
asVperils
p1964
(lp1965
g84
asVrollins
p1966
(lp1967
g90
asVslant
p1968
(lp1969
g93
asVhelping
p1970
(lp1971
g41
ag93
ag27
asVjourney
p1972
(lp1973
g64
ag64
ag25
ag41
ag41
ag35
ag35
ag90
ag39
ag91
ag33
ag84
ag84
ag27
ag29
ag31
asVfriends
p1974
(lp1975
g93
ag84
ag84
asVneeded
p1976
(lp1977
g27
asVyounger
p1978
(lp1979
g45
asVland
p1980
(lp1981
g93
ag43
asVe
p1982
(lp1983
g92
asVfor
p1984
(lp1985
g25
ag41
ag41
ag35
ag93
ag93
ag93
ag90
ag39
ag33
ag33
ag84
ag84
ag43
ag31
asVwife
p1986
(lp1987
g37
ag43
asVpersistent
p1988
(lp1989
g31
asVlonged
p1990
(lp1991
g35
asVtime
p1992
(lp1993
g39
ag27
asVwoolston
p1994
(lp1995
g93
asVoverseas
p1996
(lp1997
g31
asV2009
p1998
(lp1999
g84
asVhaving
p2000
(lp2001
g37
ag39
assb.