ccopy_reg
_reconstructor
p0
(cstorage
Storage
p1
c__builtin__
object
p2
Ntp3
Rp4
(dp5
S'_ranks'
p6
NsS'_graph'
p7
(dp8
S'http://www.youfollowthefilm.com/family.php'
p9
(lp10
S'http://www.youfollowthefilm.com/index.php'
p11
aS'http://www.youfollowthefilm.com/index.php'
p12
aS'http://www.youfollowthefilm.com/resilience.php'
p13
aS'http://www.youfollowthefilm.com/trailer.php'
p14
aS'http://www.youfollowthefilm.com/updates.php'
p15
aS'http://www.youfollowthefilm.com/family.php'
p16
aS'http://www.youfollowthefilm.com/adventure.php'
p17
aS'http://www.youfollowthefilm.com/crew.php'
p18
aS'http://www.youfollowthefilm.com/contact.php'
p19
aS'http://www.youfollowthefilm.com/donate.php'
p20
aS'http://www.youfollowthefilm.com/share.php'
p21
aS'http://www.youfollowthefilm.com/comment.php'
p22
aS'http://www.youfollowthefilm.com/sponsors.php'
p23
aS'http://www.youfollowthefilm.com/press.php'
p24
aS'http://www.youfollowthefilm.com/nisha.php'
p25
aS'http://www.youfollowthefilm.com/nisha.php'
p26
aS'http://www.youfollowthefilm.com/reena.php'
p27
aS'http://www.youfollowthefilm.com/reena.php'
p28
aS'http://www.youfollowthefilm.com/victor-l.php'
p29
aS'http://www.youfollowthefilm.com/victor-l.php'
p30
aS'http://www.youfollowthefilm.com/hitesh.php'
p31
aS'http://www.youfollowthefilm.com/hitesh.php'
p32
aS'http://www.youfollowthefilm.com/sharmila.php'
p33
aS'http://www.youfollowthefilm.com/sharmila.php'
p34
aS'http://www.youfollowthefilm.com/mohan.php'
p35
aS'http://www.youfollowthefilm.com/mohan.php'
p36
aS'http://www.youfollowthefilm.com/vinyak.php'
p37
aS'http://www.youfollowthefilm.com/vinyak.php'
p38
aS'http://www.youfollowthefilm.com/victor-g.php'
p39
aS'http://www.youfollowthefilm.com/victor-g.php'
p40
aS'http://www.youfollowthefilm.com/tony.php'
p41
aS'http://www.youfollowthefilm.com/tony.php'
p42
aS'http://www.youfollowthefilm.com/ida.php'
p43
aS'http://www.youfollowthefilm.com/ida.php'
p44
aS'http://www.youfollowthefilm.com/mimi.php'
p45
aS'http://www.youfollowthefilm.com/mimi.php'
p46
asS'http://www.youfollowthefilm.com/lookbook-people.php'
p47
(lp48
S'http://www.youfollowthefilm.com/index.php'
p49
aS'http://www.youfollowthefilm.com/index.php'
p50
aS'http://www.youfollowthefilm.com/resilience.php'
p51
aS'http://www.youfollowthefilm.com/trailer.php'
p52
aS'http://www.youfollowthefilm.com/updates.php'
p53
aS'http://www.youfollowthefilm.com/family.php'
p54
aS'http://www.youfollowthefilm.com/adventure.php'
p55
aS'http://www.youfollowthefilm.com/crew.php'
p56
aS'http://www.youfollowthefilm.com/contact.php'
p57
aS'http://www.youfollowthefilm.com/donate.php'
p58
aS'http://www.youfollowthefilm.com/share.php'
p59
aS'http://www.youfollowthefilm.com/comment.php'
p60
aS'http://www.youfollowthefilm.com/sponsors.php'
p61
aS'http://www.youfollowthefilm.com/press.php'
p62
aS'http://www.youfollowthefilm.com/adventure.php'
p63
asS'http://www.youfollowthefilm.com/share.php'
p64
(lp65
S'http://www.youfollowthefilm.com/index.php'
p66
aS'http://www.youfollowthefilm.com/index.php'
p67
aS'http://www.youfollowthefilm.com/resilience.php'
p68
aS'http://www.youfollowthefilm.com/trailer.php'
p69
aS'http://www.youfollowthefilm.com/updates.php'
p70
aS'http://www.youfollowthefilm.com/family.php'
p71
aS'http://www.youfollowthefilm.com/adventure.php'
p72
aS'http://www.youfollowthefilm.com/crew.php'
p73
aS'http://www.youfollowthefilm.com/contact.php'
p74
aS'http://www.youfollowthefilm.com/donate.php'
p75
aS'http://www.youfollowthefilm.com/share.php'
p76
aS'http://www.youfollowthefilm.com/comment.php'
p77
aS'http://www.youfollowthefilm.com/sponsors.php'
p78
aS'http://www.youfollowthefilm.com/press.php'
p79
aS'http://www.youfollowthefilm.com'
p80
asS'http://www.youfollowthefilm.com'
p81
(lp82
S'http://www.youfollowthefilm.com/index.php'
p83
aS'http://www.youfollowthefilm.com/index.php'
p84
aS'http://www.youfollowthefilm.com/resilience.php'
p85
aS'http://www.youfollowthefilm.com/trailer.php'
p86
aS'http://www.youfollowthefilm.com/updates.php'
p87
ag9
aS'http://www.youfollowthefilm.com/adventure.php'
p88
aS'http://www.youfollowthefilm.com/crew.php'
p89
aS'http://www.youfollowthefilm.com/contact.php'
p90
aS'http://www.youfollowthefilm.com/donate.php'
p91
ag64
aS'http://www.youfollowthefilm.com/comment.php'
p92
aS'http://www.youfollowthefilm.com/sponsors.php'
p93
aS'http://www.youfollowthefilm.com/press.php'
p94
aS'http://www.youfollowthefilm.com/trailer.php'
p95
asg25
(lp96
S'http://www.youfollowthefilm.com/index.php'
p97
aS'http://www.youfollowthefilm.com/index.php'
p98
aS'http://www.youfollowthefilm.com/resilience.php'
p99
aS'http://www.youfollowthefilm.com/trailer.php'
p100
aS'http://www.youfollowthefilm.com/updates.php'
p101
aS'http://www.youfollowthefilm.com/family.php'
p102
aS'http://www.youfollowthefilm.com/adventure.php'
p103
aS'http://www.youfollowthefilm.com/crew.php'
p104
aS'http://www.youfollowthefilm.com/contact.php'
p105
aS'http://www.youfollowthefilm.com/donate.php'
p106
aS'http://www.youfollowthefilm.com/share.php'
p107
aS'http://www.youfollowthefilm.com/comment.php'
p108
aS'http://www.youfollowthefilm.com/sponsors.php'
p109
aS'http://www.youfollowthefilm.com/press.php'
p110
aS'http://www.youfollowthefilm.com/family.php'
p111
asg41
(lp112
S'http://www.youfollowthefilm.com/index.php'
p113
aS'http://www.youfollowthefilm.com/index.php'
p114
aS'http://www.youfollowthefilm.com/resilience.php'
p115
aS'http://www.youfollowthefilm.com/trailer.php'
p116
aS'http://www.youfollowthefilm.com/updates.php'
p117
aS'http://www.youfollowthefilm.com/family.php'
p118
aS'http://www.youfollowthefilm.com/adventure.php'
p119
aS'http://www.youfollowthefilm.com/crew.php'
p120
aS'http://www.youfollowthefilm.com/contact.php'
p121
aS'http://www.youfollowthefilm.com/donate.php'
p122
aS'http://www.youfollowthefilm.com/share.php'
p123
aS'http://www.youfollowthefilm.com/comment.php'
p124
aS'http://www.youfollowthefilm.com/sponsors.php'
p125
aS'http://www.youfollowthefilm.com/press.php'
p126
aS'http://www.youfollowthefilm.com/family.php'
p127
asg35
(lp128
S'http://www.youfollowthefilm.com/index.php'
p129
aS'http://www.youfollowthefilm.com/index.php'
p130
aS'http://www.youfollowthefilm.com/resilience.php'
p131
aS'http://www.youfollowthefilm.com/trailer.php'
p132
aS'http://www.youfollowthefilm.com/updates.php'
p133
aS'http://www.youfollowthefilm.com/family.php'
p134
aS'http://www.youfollowthefilm.com/adventure.php'
p135
aS'http://www.youfollowthefilm.com/crew.php'
p136
aS'http://www.youfollowthefilm.com/contact.php'
p137
aS'http://www.youfollowthefilm.com/donate.php'
p138
aS'http://www.youfollowthefilm.com/share.php'
p139
aS'http://www.youfollowthefilm.com/comment.php'
p140
aS'http://www.youfollowthefilm.com/sponsors.php'
p141
aS'http://www.youfollowthefilm.com/press.php'
p142
aS'http://www.youfollowthefilm.com/family.php'
p143
asg94
(lp144
S'http://www.youfollowthefilm.com/index.php'
p145
aS'http://www.youfollowthefilm.com/index.php'
p146
aS'http://www.youfollowthefilm.com/resilience.php'
p147
aS'http://www.youfollowthefilm.com/trailer.php'
p148
aS'http://www.youfollowthefilm.com/updates.php'
p149
aS'http://www.youfollowthefilm.com/family.php'
p150
aS'http://www.youfollowthefilm.com/adventure.php'
p151
aS'http://www.youfollowthefilm.com/crew.php'
p152
aS'http://www.youfollowthefilm.com/contact.php'
p153
aS'http://www.youfollowthefilm.com/donate.php'
p154
aS'http://www.youfollowthefilm.com/share.php'
p155
aS'http://www.youfollowthefilm.com/comment.php'
p156
aS'http://www.youfollowthefilm.com/sponsors.php'
p157
aS'http://www.youfollowthefilm.com/press.php'
p158
aS'http://www.youfollowthefilm.com/www.livemint.com/2009/09/18202405/Skin-deep.html'
p159
asg83
(lp160
S'http://www.youfollowthefilm.com/index.php'
p161
aS'http://www.youfollowthefilm.com/index.php'
p162
aS'http://www.youfollowthefilm.com/resilience.php'
p163
aS'http://www.youfollowthefilm.com/trailer.php'
p164
aS'http://www.youfollowthefilm.com/updates.php'
p165
aS'http://www.youfollowthefilm.com/family.php'
p166
aS'http://www.youfollowthefilm.com/adventure.php'
p167
aS'http://www.youfollowthefilm.com/crew.php'
p168
aS'http://www.youfollowthefilm.com/contact.php'
p169
aS'http://www.youfollowthefilm.com/donate.php'
p170
aS'http://www.youfollowthefilm.com/share.php'
p171
aS'http://www.youfollowthefilm.com/comment.php'
p172
aS'http://www.youfollowthefilm.com/sponsors.php'
p173
aS'http://www.youfollowthefilm.com/press.php'
p174
aS'http://www.youfollowthefilm.com/trailer.php'
p175
asg37
(lp176
S'http://www.youfollowthefilm.com/index.php'
p177
aS'http://www.youfollowthefilm.com/index.php'
p178
aS'http://www.youfollowthefilm.com/resilience.php'
p179
aS'http://www.youfollowthefilm.com/trailer.php'
p180
aS'http://www.youfollowthefilm.com/updates.php'
p181
aS'http://www.youfollowthefilm.com/family.php'
p182
aS'http://www.youfollowthefilm.com/adventure.php'
p183
aS'http://www.youfollowthefilm.com/crew.php'
p184
aS'http://www.youfollowthefilm.com/contact.php'
p185
aS'http://www.youfollowthefilm.com/donate.php'
p186
aS'http://www.youfollowthefilm.com/share.php'
p187
aS'http://www.youfollowthefilm.com/comment.php'
p188
aS'http://www.youfollowthefilm.com/sponsors.php'
p189
aS'http://www.youfollowthefilm.com/press.php'
p190
aS'http://www.youfollowthefilm.com/family.php'
p191
asg91
(lp192
S'http://www.youfollowthefilm.com/index.php'
p193
aS'http://www.youfollowthefilm.com/index.php'
p194
aS'http://www.youfollowthefilm.com/resilience.php'
p195
aS'http://www.youfollowthefilm.com/trailer.php'
p196
aS'http://www.youfollowthefilm.com/updates.php'
p197
aS'http://www.youfollowthefilm.com/family.php'
p198
aS'http://www.youfollowthefilm.com/adventure.php'
p199
aS'http://www.youfollowthefilm.com/crew.php'
p200
aS'http://www.youfollowthefilm.com/contact.php'
p201
aS'http://www.youfollowthefilm.com/donate.php'
p202
aS'http://www.youfollowthefilm.com/share.php'
p203
aS'http://www.youfollowthefilm.com/comment.php'
p204
aS'http://www.youfollowthefilm.com/sponsors.php'
p205
aS'http://www.youfollowthefilm.com/press.php'
p206
asg85
(lp207
S'http://www.youfollowthefilm.com/index.php'
p208
aS'http://www.youfollowthefilm.com/index.php'
p209
aS'http://www.youfollowthefilm.com/resilience.php'
p210
aS'http://www.youfollowthefilm.com/trailer.php'
p211
aS'http://www.youfollowthefilm.com/updates.php'
p212
aS'http://www.youfollowthefilm.com/family.php'
p213
aS'http://www.youfollowthefilm.com/adventure.php'
p214
aS'http://www.youfollowthefilm.com/crew.php'
p215
aS'http://www.youfollowthefilm.com/contact.php'
p216
aS'http://www.youfollowthefilm.com/donate.php'
p217
aS'http://www.youfollowthefilm.com/share.php'
p218
aS'http://www.youfollowthefilm.com/comment.php'
p219
aS'http://www.youfollowthefilm.com/sponsors.php'
p220
aS'http://www.youfollowthefilm.com/press.php'
p221
asg86
(lp222
S'http://www.youfollowthefilm.com/index.php'
p223
aS'http://www.youfollowthefilm.com/index.php'
p224
aS'http://www.youfollowthefilm.com/resilience.php'
p225
aS'http://www.youfollowthefilm.com/trailer.php'
p226
aS'http://www.youfollowthefilm.com/updates.php'
p227
aS'http://www.youfollowthefilm.com/family.php'
p228
aS'http://www.youfollowthefilm.com/adventure.php'
p229
aS'http://www.youfollowthefilm.com/crew.php'
p230
aS'http://www.youfollowthefilm.com/contact.php'
p231
aS'http://www.youfollowthefilm.com/donate.php'
p232
aS'http://www.youfollowthefilm.com/share.php'
p233
aS'http://www.youfollowthefilm.com/comment.php'
p234
aS'http://www.youfollowthefilm.com/sponsors.php'
p235
aS'http://www.youfollowthefilm.com/press.php'
p236
asS'http://www.youfollowthefilm.com/lookbook-crew.php'
p237
(lp238
S'http://www.youfollowthefilm.com/index.php'
p239
aS'http://www.youfollowthefilm.com/index.php'
p240
aS'http://www.youfollowthefilm.com/resilience.php'
p241
aS'http://www.youfollowthefilm.com/trailer.php'
p242
aS'http://www.youfollowthefilm.com/updates.php'
p243
aS'http://www.youfollowthefilm.com/family.php'
p244
aS'http://www.youfollowthefilm.com/adventure.php'
p245
aS'http://www.youfollowthefilm.com/crew.php'
p246
aS'http://www.youfollowthefilm.com/contact.php'
p247
aS'http://www.youfollowthefilm.com/donate.php'
p248
aS'http://www.youfollowthefilm.com/share.php'
p249
aS'http://www.youfollowthefilm.com/comment.php'
p250
aS'http://www.youfollowthefilm.com/sponsors.php'
p251
aS'http://www.youfollowthefilm.com/press.php'
p252
aS'http://www.youfollowthefilm.com/adventure.php'
p253
asg90
(lp254
S'http://www.youfollowthefilm.com/index.php'
p255
aS'http://www.youfollowthefilm.com/index.php'
p256
aS'http://www.youfollowthefilm.com/resilience.php'
p257
aS'http://www.youfollowthefilm.com/trailer.php'
p258
aS'http://www.youfollowthefilm.com/updates.php'
p259
aS'http://www.youfollowthefilm.com/family.php'
p260
aS'http://www.youfollowthefilm.com/adventure.php'
p261
aS'http://www.youfollowthefilm.com/crew.php'
p262
aS'http://www.youfollowthefilm.com/contact.php'
p263
aS'http://www.youfollowthefilm.com/donate.php'
p264
aS'http://www.youfollowthefilm.com/share.php'
p265
aS'http://www.youfollowthefilm.com/comment.php'
p266
aS'http://www.youfollowthefilm.com/sponsors.php'
p267
aS'http://www.youfollowthefilm.com/press.php'
p268
asg92
(lp269
S'http://www.youfollowthefilm.com/index.php'
p270
aS'http://www.youfollowthefilm.com/index.php'
p271
aS'http://www.youfollowthefilm.com/resilience.php'
p272
aS'http://www.youfollowthefilm.com/trailer.php'
p273
aS'http://www.youfollowthefilm.com/updates.php'
p274
aS'http://www.youfollowthefilm.com/family.php'
p275
aS'http://www.youfollowthefilm.com/adventure.php'
p276
aS'http://www.youfollowthefilm.com/crew.php'
p277
aS'http://www.youfollowthefilm.com/contact.php'
p278
aS'http://www.youfollowthefilm.com/donate.php'
p279
aS'http://www.youfollowthefilm.com/share.php'
p280
aS'http://www.youfollowthefilm.com/comment.php'
p281
aS'http://www.youfollowthefilm.com/sponsors.php'
p282
aS'http://www.youfollowthefilm.com/press.php'
p283
asg87
(lp284
S'http://www.youfollowthefilm.com/index.php'
p285
aS'http://www.youfollowthefilm.com/index.php'
p286
aS'http://www.youfollowthefilm.com/resilience.php'
p287
aS'http://www.youfollowthefilm.com/trailer.php'
p288
aS'http://www.youfollowthefilm.com/updates.php'
p289
aS'http://www.youfollowthefilm.com/family.php'
p290
aS'http://www.youfollowthefilm.com/adventure.php'
p291
aS'http://www.youfollowthefilm.com/crew.php'
p292
aS'http://www.youfollowthefilm.com/contact.php'
p293
aS'http://www.youfollowthefilm.com/donate.php'
p294
aS'http://www.youfollowthefilm.com/share.php'
p295
aS'http://www.youfollowthefilm.com/comment.php'
p296
aS'http://www.youfollowthefilm.com/sponsors.php'
p297
aS'http://www.youfollowthefilm.com/press.php'
p298
asg33
(lp299
S'http://www.youfollowthefilm.com/index.php'
p300
aS'http://www.youfollowthefilm.com/index.php'
p301
aS'http://www.youfollowthefilm.com/resilience.php'
p302
aS'http://www.youfollowthefilm.com/trailer.php'
p303
aS'http://www.youfollowthefilm.com/updates.php'
p304
aS'http://www.youfollowthefilm.com/family.php'
p305
aS'http://www.youfollowthefilm.com/adventure.php'
p306
aS'http://www.youfollowthefilm.com/crew.php'
p307
aS'http://www.youfollowthefilm.com/contact.php'
p308
aS'http://www.youfollowthefilm.com/donate.php'
p309
aS'http://www.youfollowthefilm.com/share.php'
p310
aS'http://www.youfollowthefilm.com/comment.php'
p311
aS'http://www.youfollowthefilm.com/sponsors.php'
p312
aS'http://www.youfollowthefilm.com/press.php'
p313
aS'http://www.youfollowthefilm.com/family.php'
p314
asS'http://www.youfollowthefilm.com/lookbook-places.php'
p315
(lp316
S'http://www.youfollowthefilm.com/index.php'
p317
aS'http://www.youfollowthefilm.com/index.php'
p318
aS'http://www.youfollowthefilm.com/resilience.php'
p319
aS'http://www.youfollowthefilm.com/trailer.php'
p320
aS'http://www.youfollowthefilm.com/updates.php'
p321
aS'http://www.youfollowthefilm.com/family.php'
p322
aS'http://www.youfollowthefilm.com/adventure.php'
p323
aS'http://www.youfollowthefilm.com/crew.php'
p324
aS'http://www.youfollowthefilm.com/contact.php'
p325
aS'http://www.youfollowthefilm.com/donate.php'
p326
aS'http://www.youfollowthefilm.com/share.php'
p327
aS'http://www.youfollowthefilm.com/comment.php'
p328
aS'http://www.youfollowthefilm.com/sponsors.php'
p329
aS'http://www.youfollowthefilm.com/press.php'
p330
aS'http://www.youfollowthefilm.com/adventure.php'
p331
asg39
(lp332
S'http://www.youfollowthefilm.com/index.php'
p333
aS'http://www.youfollowthefilm.com/index.php'
p334
aS'http://www.youfollowthefilm.com/resilience.php'
p335
aS'http://www.youfollowthefilm.com/trailer.php'
p336
aS'http://www.youfollowthefilm.com/updates.php'
p337
aS'http://www.youfollowthefilm.com/family.php'
p338
aS'http://www.youfollowthefilm.com/adventure.php'
p339
aS'http://www.youfollowthefilm.com/crew.php'
p340
aS'http://www.youfollowthefilm.com/contact.php'
p341
aS'http://www.youfollowthefilm.com/donate.php'
p342
aS'http://www.youfollowthefilm.com/share.php'
p343
aS'http://www.youfollowthefilm.com/comment.php'
p344
aS'http://www.youfollowthefilm.com/sponsors.php'
p345
aS'http://www.youfollowthefilm.com/press.php'
p346
aS'http://www.youfollowthefilm.com/family.php'
p347
asg27
(lp348
S'http://www.youfollowthefilm.com/index.php'
p349
aS'http://www.youfollowthefilm.com/index.php'
p350
aS'http://www.youfollowthefilm.com/resilience.php'
p351
aS'http://www.youfollowthefilm.com/trailer.php'
p352
aS'http://www.youfollowthefilm.com/updates.php'
p353
aS'http://www.youfollowthefilm.com/family.php'
p354
aS'http://www.youfollowthefilm.com/adventure.php'
p355
aS'http://www.youfollowthefilm.com/crew.php'
p356
aS'http://www.youfollowthefilm.com/contact.php'
p357
aS'http://www.youfollowthefilm.com/donate.php'
p358
aS'http://www.youfollowthefilm.com/share.php'
p359
aS'http://www.youfollowthefilm.com/comment.php'
p360
aS'http://www.youfollowthefilm.com/sponsors.php'
p361
aS'http://www.youfollowthefilm.com/press.php'
p362
aS'http://www.youfollowthefilm.com/family.php'
p363
asg93
(lp364
S'http://www.youfollowthefilm.com/index.php'
p365
aS'http://www.youfollowthefilm.com/index.php'
p366
aS'http://www.youfollowthefilm.com/resilience.php'
p367
aS'http://www.youfollowthefilm.com/trailer.php'
p368
aS'http://www.youfollowthefilm.com/updates.php'
p369
aS'http://www.youfollowthefilm.com/family.php'
p370
aS'http://www.youfollowthefilm.com/adventure.php'
p371
aS'http://www.youfollowthefilm.com/crew.php'
p372
aS'http://www.youfollowthefilm.com/contact.php'
p373
aS'http://www.youfollowthefilm.com/donate.php'
p374
aS'http://www.youfollowthefilm.com/share.php'
p375
aS'http://www.youfollowthefilm.com/comment.php'
p376
aS'http://www.youfollowthefilm.com/sponsors.php'
p377
aS'http://www.youfollowthefilm.com/press.php'
p378
asg29
(lp379
S'http://www.youfollowthefilm.com/index.php'
p380
aS'http://www.youfollowthefilm.com/index.php'
p381
aS'http://www.youfollowthefilm.com/resilience.php'
p382
aS'http://www.youfollowthefilm.com/trailer.php'
p383
aS'http://www.youfollowthefilm.com/updates.php'
p384
aS'http://www.youfollowthefilm.com/family.php'
p385
aS'http://www.youfollowthefilm.com/adventure.php'
p386
aS'http://www.youfollowthefilm.com/crew.php'
p387
aS'http://www.youfollowthefilm.com/contact.php'
p388
aS'http://www.youfollowthefilm.com/donate.php'
p389
aS'http://www.youfollowthefilm.com/share.php'
p390
aS'http://www.youfollowthefilm.com/comment.php'
p391
aS'http://www.youfollowthefilm.com/sponsors.php'
p392
aS'http://www.youfollowthefilm.com/press.php'
p393
aS'http://www.youfollowthefilm.com/family.php'
p394
asS'http://www.youfollowthefilm.com/lookbook-landscape.php'
p395
(lp396
S'http://www.youfollowthefilm.com/index.php'
p397
aS'http://www.youfollowthefilm.com/index.php'
p398
aS'http://www.youfollowthefilm.com/resilience.php'
p399
aS'http://www.youfollowthefilm.com/trailer.php'
p400
aS'http://www.youfollowthefilm.com/updates.php'
p401
aS'http://www.youfollowthefilm.com/family.php'
p402
aS'http://www.youfollowthefilm.com/adventure.php'
p403
aS'http://www.youfollowthefilm.com/crew.php'
p404
aS'http://www.youfollowthefilm.com/contact.php'
p405
aS'http://www.youfollowthefilm.com/donate.php'
p406
aS'http://www.youfollowthefilm.com/share.php'
p407
aS'http://www.youfollowthefilm.com/comment.php'
p408
aS'http://www.youfollowthefilm.com/sponsors.php'
p409
aS'http://www.youfollowthefilm.com/press.php'
p410
aS'http://www.youfollowthefilm.com/adventure.php'
p411
asg159
(lp412
sg89
(lp413
S'http://www.youfollowthefilm.com/index.php'
p414
aS'http://www.youfollowthefilm.com/index.php'
p415
aS'http://www.youfollowthefilm.com/resilience.php'
p416
aS'http://www.youfollowthefilm.com/trailer.php'
p417
aS'http://www.youfollowthefilm.com/updates.php'
p418
aS'http://www.youfollowthefilm.com/family.php'
p419
aS'http://www.youfollowthefilm.com/adventure.php'
p420
aS'http://www.youfollowthefilm.com/crew.php'
p421
aS'http://www.youfollowthefilm.com/contact.php'
p422
aS'http://www.youfollowthefilm.com/donate.php'
p423
aS'http://www.youfollowthefilm.com/share.php'
p424
aS'http://www.youfollowthefilm.com/comment.php'
p425
aS'http://www.youfollowthefilm.com/sponsors.php'
p426
aS'http://www.youfollowthefilm.com/press.php'
p427
asg88
(lp428
S'http://www.youfollowthefilm.com/index.php'
p429
aS'http://www.youfollowthefilm.com/index.php'
p430
aS'http://www.youfollowthefilm.com/resilience.php'
p431
aS'http://www.youfollowthefilm.com/trailer.php'
p432
aS'http://www.youfollowthefilm.com/updates.php'
p433
aS'http://www.youfollowthefilm.com/family.php'
p434
aS'http://www.youfollowthefilm.com/adventure.php'
p435
aS'http://www.youfollowthefilm.com/crew.php'
p436
aS'http://www.youfollowthefilm.com/contact.php'
p437
aS'http://www.youfollowthefilm.com/donate.php'
p438
aS'http://www.youfollowthefilm.com/share.php'
p439
aS'http://www.youfollowthefilm.com/comment.php'
p440
aS'http://www.youfollowthefilm.com/sponsors.php'
p441
aS'http://www.youfollowthefilm.com/press.php'
p442
ag237
ag395
ag47
ag315
asg31
(lp443
S'http://www.youfollowthefilm.com/index.php'
p444
aS'http://www.youfollowthefilm.com/index.php'
p445
aS'http://www.youfollowthefilm.com/resilience.php'
p446
aS'http://www.youfollowthefilm.com/trailer.php'
p447
aS'http://www.youfollowthefilm.com/updates.php'
p448
aS'http://www.youfollowthefilm.com/family.php'
p449
aS'http://www.youfollowthefilm.com/adventure.php'
p450
aS'http://www.youfollowthefilm.com/crew.php'
p451
aS'http://www.youfollowthefilm.com/contact.php'
p452
aS'http://www.youfollowthefilm.com/donate.php'
p453
aS'http://www.youfollowthefilm.com/share.php'
p454
aS'http://www.youfollowthefilm.com/comment.php'
p455
aS'http://www.youfollowthefilm.com/sponsors.php'
p456
aS'http://www.youfollowthefilm.com/press.php'
p457
aS'http://www.youfollowthefilm.com/family.php'
p458
asg45
(lp459
S'http://www.youfollowthefilm.com/index.php'
p460
aS'http://www.youfollowthefilm.com/index.php'
p461
aS'http://www.youfollowthefilm.com/resilience.php'
p462
aS'http://www.youfollowthefilm.com/trailer.php'
p463
aS'http://www.youfollowthefilm.com/updates.php'
p464
aS'http://www.youfollowthefilm.com/family.php'
p465
aS'http://www.youfollowthefilm.com/adventure.php'
p466
aS'http://www.youfollowthefilm.com/crew.php'
p467
aS'http://www.youfollowthefilm.com/contact.php'
p468
aS'http://www.youfollowthefilm.com/donate.php'
p469
aS'http://www.youfollowthefilm.com/share.php'
p470
aS'http://www.youfollowthefilm.com/comment.php'
p471
aS'http://www.youfollowthefilm.com/sponsors.php'
p472
aS'http://www.youfollowthefilm.com/press.php'
p473
aS'http://www.youfollowthefilm.com/family.php'
p474
asg43
(lp475
S'http://www.youfollowthefilm.com/index.php'
p476
aS'http://www.youfollowthefilm.com/index.php'
p477
aS'http://www.youfollowthefilm.com/resilience.php'
p478
aS'http://www.youfollowthefilm.com/trailer.php'
p479
aS'http://www.youfollowthefilm.com/updates.php'
p480
aS'http://www.youfollowthefilm.com/family.php'
p481
aS'http://www.youfollowthefilm.com/adventure.php'
p482
aS'http://www.youfollowthefilm.com/crew.php'
p483
aS'http://www.youfollowthefilm.com/contact.php'
p484
aS'http://www.youfollowthefilm.com/donate.php'
p485
aS'http://www.youfollowthefilm.com/share.php'
p486
aS'http://www.youfollowthefilm.com/comment.php'
p487
aS'http://www.youfollowthefilm.com/sponsors.php'
p488
aS'http://www.youfollowthefilm.com/press.php'
p489
aS'http://www.youfollowthefilm.com/family.php'
p490
assS'_titles'
p491
(dp492
g9
S'Family | You Follow - Documentary'
p493
sg47
S'Lookbook People | You Follow - Documentary'
p494
sg64
S'Share | You Follow - Documentary'
p495
sg81
S'You Follow - Documentary'
p496
sg25
S'Nisha | You Follow - Documentary'
p497
sg41
S'Tony | You Follow - Documentary'
p498
sg35
S'Mohan | You Follow - Documentary'
p499
sg94
S'Press | You Follow - Documentary'
p500
sg83
S'You Follow - Documentary'
p501
sg37
S'Vinyak | You Follow - Documentary'
p502
sg91
S'Donate | You Follow - Documentary'
p503
sg85
S'Resilience | You Follow - Documentary'
p504
sg86
S'Trailer | You Follow - Documentary'
p505
sg237
S'Lookbook Crew | You Follow - Documentary'
p506
sg90
S'Contact | You Follow - Documentary'
p507
sg92
S'Comment | You Follow - Documentary'
p508
sg87
S'Updates | You Follow - Documentary'
p509
sg33
S'Sharmila | You Follow - Documentary'
p510
sg315
S'Lookbook Places | You Follow - Documentary'
p511
sg39
S'Victor G | You Follow - Documentary'
p512
sg27
S'Reena | You Follow - Documentary'
p513
sg93
S'Sponsors | You Follow - Documentary'
p514
sg29
S'Victor L | You Follow - Documentary'
p515
sg395
S'Lookbook Landscape | You Follow - Documentary'
p516
sg159
S'404 Not Found'
p517
sg89
S'Crew | You Follow - Documentary'
p518
sg88
S'Adventure | You Follow - Documentary'
p519
sg31
S'Hitesh | You Follow - Documentary'
p520
sg45
S'Mimi | You Follow - Documentary'
p521
sg43
S'Ida | You Follow - Documentary'
p522
ssS'_index'
p523
(dp524
V
p525
(lp526
g81
ag81
ag81
ag81
ag81
ag81
ag81
ag81
ag81
ag81
ag81
ag81
ag81
ag81
ag81
ag9
ag9
ag9
ag9
ag9
ag9
ag9
ag9
ag9
ag9
ag9
ag9
ag9
ag9
ag9
ag9
ag64
ag64
ag64
ag64
ag64
ag64
ag64
ag64
ag64
ag64
ag64
ag64
ag64
ag64
ag64
ag64
ag25
ag25
ag25
ag25
ag25
ag25
ag25
ag25
ag25
ag25
ag25
ag25
ag25
ag25
ag25
ag25
ag41
ag41
ag41
ag41
ag41
ag41
ag41
ag41
ag41
ag41
ag41
ag41
ag41
ag41
ag41
ag41
ag35
ag35
ag35
ag35
ag35
ag35
ag35
ag35
ag35
ag35
ag35
ag35
ag35
ag35
ag35
ag35
ag94
ag94
ag94
ag94
ag94
ag94
ag94
ag94
ag94
ag94
ag94
ag94
ag94
ag94
ag94
ag94
ag83
ag83
ag83
ag83
ag83
ag83
ag83
ag83
ag83
ag83
ag83
ag83
ag83
ag83
ag83
ag37
ag37
ag37
ag37
ag37
ag37
ag37
ag37
ag37
ag37
ag37
ag37
ag37
ag37
ag37
ag37
ag91
ag91
ag91
ag91
ag91
ag91
ag91
ag91
ag91
ag91
ag91
ag91
ag91
ag91
ag91
ag91
ag39
ag39
ag39
ag39
ag39
ag39
ag39
ag39
ag39
ag39
ag39
ag39
ag39
ag39
ag39
ag39
ag86
ag86
ag86
ag86
ag86
ag86
ag86
ag86
ag86
ag86
ag86
ag86
ag86
ag86
ag86
ag86
ag90
ag90
ag90
ag90
ag90
ag90
ag90
ag90
ag90
ag90
ag90
ag90
ag90
ag90
ag90
ag90
ag92
ag92
ag92
ag92
ag92
ag92
ag92
ag92
ag92
ag92
ag92
ag92
ag92
ag92
ag92
ag92
ag87
ag87
ag87
ag87
ag87
ag87
ag87
ag87
ag87
ag87
ag87
ag87
ag87
ag87
ag87
ag87
ag33
ag33
ag33
ag33
ag33
ag33
ag33
ag33
ag33
ag33
ag33
ag33
ag33
ag33
ag33
ag33
ag85
ag85
ag85
ag85
ag85
ag85
ag85
ag85
ag85
ag85
ag85
ag85
ag85
ag85
ag85
ag85
ag27
ag27
ag27
ag27
ag27
ag27
ag27
ag27
ag27
ag27
ag27
ag27
ag27
ag27
ag27
ag27
ag29
ag29
ag29
ag29
ag29
ag29
ag29
ag29
ag29
ag29
ag29
ag29
ag29
ag29
ag29
ag29
ag43
ag43
ag43
ag43
ag43
ag43
ag43
ag43
ag43
ag43
ag43
ag43
ag43
ag43
ag43
ag43
ag89
ag89
ag89
ag89
ag89
ag89
ag89
ag89
ag89
ag89
ag89
ag89
ag89
ag89
ag89
ag89
ag88
ag88
ag88
ag88
ag88
ag88
ag88
ag88
ag88
ag88
ag88
ag88
ag88
ag88
ag88
ag88
ag47
ag47
ag47
ag47
ag47
ag47
ag47
ag47
ag47
ag47
ag47
ag47
ag47
ag47
ag47
ag47
ag47
ag47
ag237
ag237
ag237
ag237
ag237
ag237
ag237
ag237
ag237
ag237
ag237
ag237
ag237
ag237
ag237
ag237
ag237
ag237
ag315
ag315
ag315
ag315
ag315
ag315
ag315
ag315
ag315
ag315
ag315
ag315
ag315
ag315
ag315
ag315
ag315
ag315
ag395
ag395
ag395
ag395
ag395
ag395
ag395
ag395
ag395
ag395
ag395
ag395
ag395
ag395
ag395
ag395
ag395
ag395
ag31
ag31
ag31
ag31
ag31
ag31
ag31
ag31
ag31
ag31
ag31
ag31
ag31
ag31
ag31
ag31
ag45
ag45
ag45
ag45
ag45
ag45
ag45
ag45
ag45
ag45
ag45
ag45
ag45
ag45
ag45
ag45
ag93
ag93
ag93
ag93
ag93
ag93
ag93
ag93
ag93
ag93
ag93
ag93
ag93
ag93
ag93
ag93
asVall
p527
(lp528
g64
ag91
asVremarkable
p529
(lp530
g41
ag39
asVgoa
p531
(lp532
g25
ag94
ag85
ag29
ag43
ag31
asVdollar
p533
(lp534
g91
asVmonth
p535
(lp536
g85
asVfour
p537
(lp538
g85
asVgazillion
p539
(lp540
g94
asVga
p541
(lp542
g81
ag81
ag81
ag9
ag9
ag9
ag64
ag64
ag64
ag25
ag25
ag25
ag41
ag41
ag41
ag35
ag35
ag35
ag94
ag94
ag94
ag83
ag83
ag83
ag37
ag37
ag37
ag91
ag91
ag91
ag39
ag39
ag39
ag86
ag86
ag86
ag90
ag90
ag90
ag92
ag92
ag92
ag87
ag87
ag87
ag33
ag33
ag33
ag85
ag85
ag85
ag27
ag27
ag27
ag29
ag29
ag29
ag43
ag43
ag43
ag89
ag89
ag89
ag88
ag88
ag88
ag47
ag47
ag47
ag237
ag237
ag237
ag315
ag315
ag315
ag395
ag395
ag395
ag31
ag31
ag31
ag45
ag45
ag45
ag93
ag93
ag93
asVskin
p543
(lp544
g94
asVfollow
p545
(lp546
g81
ag81
ag81
ag9
ag9
ag9
ag64
ag64
ag64
ag64
ag64
ag25
ag25
ag25
ag25
ag41
ag41
ag41
ag41
ag35
ag35
ag35
ag94
ag94
ag94
ag94
ag94
ag83
ag83
ag83
ag37
ag37
ag37
ag91
ag91
ag91
ag91
ag91
ag39
ag39
ag39
ag86
ag86
ag86
ag90
ag90
ag90
ag92
ag92
ag92
ag92
ag87
ag87
ag87
ag33
ag33
ag33
ag33
ag85
ag85
ag85
ag85
ag85
ag85
ag27
ag27
ag27
ag27
ag29
ag29
ag29
ag29
ag43
ag43
ag43
ag89
ag89
ag89
ag88
ag88
ag88
ag47
ag47
ag47
ag237
ag237
ag237
ag315
ag315
ag315
ag395
ag395
ag395
ag31
ag31
ag31
ag45
ag45
ag45
ag93
ag93
ag93
asVreligious
p547
(lp548
g41
asVchildren
p549
(lp550
g94
asVseemed
p551
(lp552
g45
asVwhose
p553
(lp554
g35
asVbirthplace
p555
(lp556
g85
asVbut
p557
(lp558
g45
asVthemes
p559
(lp560
g47
ag237
ag315
ag395
asVfilming
p561
(lp562
g29
ag89
ag45
asVsend
p563
(lp564
g81
ag9
ag64
ag25
ag41
ag35
ag94
ag83
ag37
ag91
ag39
ag86
ag90
ag92
ag87
ag33
ag85
ag27
ag29
ag43
ag89
ag88
ag47
ag237
ag315
ag395
ag31
ag45
ag93
asVto
p565
(lp566
g81
ag9
ag9
ag64
ag64
ag64
ag64
ag64
ag64
ag64
ag64
ag64
ag64
ag64
ag25
ag25
ag25
ag25
ag41
ag41
ag41
ag35
ag35
ag35
ag35
ag35
ag94
ag94
ag94
ag94
ag94
ag94
ag83
ag37
ag37
ag91
ag91
ag91
ag91
ag91
ag91
ag91
ag91
ag91
ag39
ag39
ag39
ag39
ag86
ag90
ag92
ag92
ag92
ag92
ag92
ag92
ag87
ag33
ag33
ag33
ag33
ag33
ag33
ag85
ag85
ag85
ag85
ag85
ag85
ag85
ag27
ag27
ag27
ag27
ag29
ag29
ag29
ag29
ag29
ag29
ag43
ag43
ag43
ag89
ag88
ag47
ag237
ag315
ag395
ag31
ag31
ag31
ag31
ag31
ag31
ag31
ag45
ag45
ag45
ag45
ag45
ag45
ag45
ag93
ag93
ag93
asVcharge
p567
(lp568
g43
asVatlas
p569
(lp570
g91
asVsafety
p571
(lp572
g43
ag45
asVwoman
p573
(lp574
g43
ag45
asVsong
p575
(lp576
g91
asVvery
p577
(lp578
g64
ag37
ag91
ag91
ag39
ag92
asVhilarious
p579
(lp580
g45
asVsponsors
p581
(lp582
g81
ag9
ag64
ag25
ag41
ag35
ag94
ag83
ag37
ag91
ag39
ag86
ag90
ag92
ag87
ag33
ag85
ag27
ag29
ag43
ag89
ag88
ag47
ag237
ag315
ag395
ag31
ag45
ag93
ag93
asVunfamiliar
p583
(lp584
g41
asVokorougo
p585
(lp586
g91
asVfacebook
p587
(lp588
g81
ag9
ag64
ag64
ag25
ag41
ag35
ag94
ag83
ag37
ag91
ag39
ag86
ag90
ag92
ag87
ag33
ag85
ag27
ag29
ag43
ag89
ag88
ag47
ag237
ag315
ag395
ag31
ag45
ag93
asVupdates
p589
(lp590
g81
ag9
ag64
ag25
ag41
ag35
ag94
ag83
ag37
ag91
ag39
ag86
ag90
ag92
ag87
ag87
ag87
ag33
ag85
ag27
ag29
ag43
ag89
ag88
ag47
ag237
ag315
ag395
ag31
ag45
ag93
asVconception
p591
(lp592
g33
asVdifference
p593
(lp594
g64
asVwjs
p595
(lp596
g81
ag9
ag64
ag25
ag41
ag35
ag94
ag83
ag37
ag91
ag39
ag86
ag90
ag92
ag87
ag33
ag85
ag27
ag29
ag43
ag89
ag88
ag47
ag237
ag315
ag395
ag31
ag45
ag93
asVencounter
p597
(lp598
g35
asVdisconnected
p599
(lp600
g37
asVtimely
p601
(lp602
g27
asVleads
p603
(lp604
g85
asVtear
p605
(lp606
g33
asVcompassionate
p607
(lp608
g25
asVmichael
p609
(lp610
g91
asVthoughtful
p611
(lp612
g31
asVlarge
p613
(lp614
g91
asVteam
p615
(lp616
g41
ag35
ag37
ag43
ag45
asVsmall
p617
(lp618
g91
asVlisa
p619
(lp620
g91
asVround
p621
(lp622
g94
asVspiritual
p623
(lp624
g25
asVunexpected
p625
(lp626
g85
asVsays
p627
(lp628
g41
asVwithheld
p629
(lp630
g41
asVdirect
p631
(lp632
g33
asVpast
p633
(lp634
g25
ag25
asVparents
p635
(lp636
g45
asVperspective
p637
(lp638
g37
ag43
ag45
asVlavery
p639
(lp640
g81
ag9
ag64
ag25
ag41
ag35
ag94
ag83
ag37
ag91
ag91
ag91
ag39
ag86
ag90
ag90
ag92
ag87
ag33
ag85
ag27
ag29
ag43
ag89
ag89
ag88
ag47
ag237
ag315
ag395
ag31
ag45
ag93
ag93
asVclick
p641
(lp642
g9
asVvictor
p643
(lp644
g9
ag9
ag39
ag39
ag39
ag39
ag39
ag29
ag29
ag29
ag29
ag29
asVwhat
p645
(lp646
g94
ag94
ag94
ag33
asVgiving
p647
(lp648
g41
asVjeopardy
p649
(lp650
g31
asVshares
p651
(lp652
g94
ag39
ag31
asVconsistently
p653
(lp654
g25
asVindian
p655
(lp656
g94
ag27
ag31
asVgoes
p657
(lp658
g91
asVshared
p659
(lp660
g64
asVever
p661
(lp662
g85
asVsusanna
p663
(lp664
g91
asVsupporting
p665
(lp666
g43
asVevolving
p667
(lp668
g25
asVfull
p669
(lp670
g85
ag85
asVled
p671
(lp672
g35
asVchose
p673
(lp674
g64
asVdrew
p675
(lp676
g35
asVdelivering
p677
(lp678
g27
asVexplore
p679
(lp680
g45
asVpursuit
p681
(lp682
g41
asVaddress
p683
(lp684
g92
asVapache
p685
(lp686
g159
asVpath
p687
(lp688
g81
ag81
ag81
ag81
ag9
ag9
ag9
ag9
ag64
ag64
ag64
ag64
ag64
ag25
ag25
ag25
ag25
ag41
ag41
ag41
ag41
ag35
ag35
ag35
ag35
ag35
ag94
ag94
ag94
ag94
ag83
ag83
ag83
ag83
ag37
ag37
ag37
ag37
ag91
ag91
ag91
ag91
ag91
ag39
ag39
ag39
ag39
ag86
ag86
ag86
ag86
ag90
ag90
ag90
ag90
ag92
ag92
ag92
ag92
ag92
ag87
ag87
ag87
ag87
ag33
ag33
ag33
ag33
ag85
ag85
ag85
ag85
ag27
ag27
ag27
ag27
ag29
ag29
ag29
ag29
ag43
ag43
ag43
ag43
ag89
ag89
ag89
ag89
ag88
ag88
ag88
ag88
ag47
ag47
ag47
ag47
ag237
ag237
ag237
ag237
ag315
ag315
ag315
ag315
ag395
ag395
ag395
ag395
ag31
ag31
ag31
ag31
ag45
ag45
ag45
ag45
ag93
ag93
ag93
ag93
asValong
p689
(lp690
g25
ag41
ag85
ag43
ag31
asVsalzano
p691
(lp692
g89
asV39
p693
(lp694
g85
asVdeductible
p695
(lp696
g91
asVdaughter
p697
(lp698
g43
ag45
asVinvolved
p699
(lp700
g25
ag29
asVreena
p701
(lp702
g9
ag33
ag27
ag27
ag27
ag27
ag89
asVallows
p703
(lp704
g33
asVexperience
p705
(lp706
g37
asVexemplifies
p707
(lp708
g33
asVsocial
p709
(lp710
g37
ag89
ag89
asVhospitality
p711
(lp712
g41
ag43
asVbob
p713
(lp714
g89
asVmakes
p715
(lp716
g35
asVlove
p717
(lp718
g91
ag93
asVdisposition
p719
(lp720
g31
asVcampaign
p721
(lp722
g94
asVscreens
p723
(lp724
g64
ag91
ag92
asVconflicts
p725
(lp726
g31
asVfollower
p727
(lp728
g33
asVnames
p729
(lp730
g9
asVcomposer
p731
(lp732
g89
asVunit
p733
(lp734
g89
asVeye
p735
(lp736
g94
ag94
asVtakes
p737
(lp738
g43
asVworking
p739
(lp740
g29
asVpositive
p741
(lp742
g27
asVkhalashi
p743
(lp744
g91
ag31
asVassuring
p745
(lp746
g45
asVcamera
p747
(lp748
g25
asVmusic
p749
(lp750
g89
asVhttps
p751
(lp752
g81
ag9
ag64
ag25
ag41
ag35
ag94
ag83
ag37
ag91
ag39
ag86
ag90
ag92
ag87
ag33
ag85
ag27
ag29
ag43
ag89
ag88
ag47
ag237
ag315
ag395
ag31
ag45
ag93
asVsharmila
p753
(lp754
g9
ag35
ag94
ag90
ag33
ag33
ag33
ag33
ag27
ag89
asVcreates
p755
(lp756
g31
asVmore
p757
(lp758
g9
asVsharing
p759
(lp760
g64
ag64
ag94
ag37
asVclicking
p761
(lp762
g91
asVshare
p763
(lp764
g81
ag9
ag64
ag64
ag25
ag41
ag35
ag94
ag94
ag83
ag37
ag91
ag39
ag86
ag90
ag92
ag87
ag33
ag85
ag27
ag29
ag43
ag89
ag88
ag47
ag237
ag315
ag395
ag31
ag45
ag45
ag93
asVdion
p765
(lp766
g89
asVsister
p767
(lp768
g33
ag27
asVwarm
p769
(lp770
g41
ag35
asVeverywhere
p771
(lp772
g64
ag91
ag91
ag92
asVknown
p773
(lp774
g85
asVfoundations
p775
(lp776
g93
asVrivalry
p777
(lp778
g33
asVwomen
p779
(lp780
g39
asVtown
p781
(lp782
g35
ag39
asVorganizations
p783
(lp784
g93
asVbellestri
p785
(lp786
g91
asVword
p787
(lp788
g94
asVbalance
p789
(lp790
g31
asVrights
p791
(lp792
g94
asVthis
p793
(lp794
g64
ag64
ag94
ag94
ag91
ag92
ag85
ag159
asVwork
p795
(lp796
g35
ag35
asVgrowing
p797
(lp798
g45
asVmeet
p799
(lp800
g85
asVhistory
p801
(lp802
g35
ag39
ag39
asVheart
p803
(lp804
g35
ag85
asVdedicated
p805
(lp806
g29
ag43
asVfigure
p807
(lp808
g27
asVprocess
p809
(lp810
g29
asVpreserving
p811
(lp812
g39
asVindia
p813
(lp814
g25
ag85
ag85
asVpromotional
p815
(lp816
g29
asVstates
p817
(lp818
g85
asVmohan
p819
(lp820
g9
ag35
ag35
ag35
ag35
asVkost
p821
(lp822
g91
asVbecca
p823
(lp824
g91
asVnative
p825
(lp826
g41
ag39
ag43
asVinformation
p827
(lp828
g41
ag39
asVunited
p829
(lp830
g85
asVgoan
p831
(lp832
g41
ag35
ag37
ag37
ag39
ag39
ag39
ag45
asVprovide
p833
(lp834
g39
asVtravel
p835
(lp836
g29
ag45
asVamerican
p837
(lp838
g94
asVstayed
p839
(lp840
g35
asV1
p841
(lp842
g81
ag9
ag64
ag25
ag41
ag35
ag94
ag83
ag37
ag91
ag39
ag86
ag90
ag92
ag87
ag33
ag85
ag27
ag29
ag43
ag89
ag88
ag47
ag237
ag315
ag395
ag31
ag45
ag93
asVhow
p843
(lp844
g91
asVamazing
p845
(lp846
g64
asVluke
p847
(lp848
g89
asVvinyak
p849
(lp850
g9
ag37
ag37
ag37
asVif
p851
(lp852
g81
ag9
ag64
ag25
ag41
ag35
ag94
ag83
ag37
ag91
ag39
ag86
ag90
ag92
ag87
ag33
ag85
ag27
ag29
ag43
ag89
ag88
ag47
ag237
ag315
ag395
ag31
ag45
ag93
ag93
asVdevika
p853
(lp854
g94
asVplans
p855
(lp856
g45
asVethica
p857
(lp858
g94
asVadvice
p859
(lp860
g43
asVafter
p861
(lp862
g85
asVloyalty
p863
(lp864
g85
asVmultitude
p865
(lp866
g33
asVadventure
p867
(lp868
g81
ag9
ag64
ag64
ag25
ag41
ag35
ag94
ag83
ag37
ag91
ag39
ag86
ag90
ag92
ag87
ag33
ag85
ag85
ag27
ag29
ag43
ag89
ag88
ag88
ag47
ag237
ag315
ag395
ag31
ag45
ag93
asVcoming
p869
(lp870
g41
ag27
asVman
p871
(lp872
g41
asVa
p873
(lp874
g64
ag64
ag25
ag25
ag25
ag41
ag41
ag41
ag41
ag41
ag35
ag35
ag35
ag94
ag94
ag37
ag37
ag37
ag37
ag91
ag91
ag39
ag39
ag39
ag92
ag33
ag33
ag33
ag33
ag33
ag85
ag85
ag85
ag85
ag85
ag85
ag27
ag27
ag27
ag29
ag29
ag43
ag43
ag43
ag43
ag31
ag31
ag31
ag31
ag45
ag45
ag45
ag93
ag93
asVno
p875
(lp876
g91
asV80
p877
(lp878
g159
asVconcern
p879
(lp880
g45
asVduterte
p881
(lp882
g91
asV404
p883
(lp884
g159
asVchildhood
p885
(lp886
g35
asVso
p887
(lp888
g41
asVroad
p889
(lp890
g85
asVevery
p891
(lp892
g64
ag25
ag91
asVcountryside
p893
(lp894
g37
ag39
asVhelp
p895
(lp896
g93
asVproducer
p897
(lp898
g90
ag90
ag89
ag89
asVresiliency
p899
(lp900
g64
asVwelcomed
p901
(lp902
g41
asVessence
p903
(lp904
g85
asVheartfelt
p905
(lp906
g85
asVinsight
p907
(lp908
g39
asVmission
p909
(lp910
g45
asVcarmela
p911
(lp912
g91
asVyears
p913
(lp914
g37
ag85
ag85
asVdijkstra
p915
(lp916
g91
asVthrough
p917
(lp918
g91
ag39
ag85
ag27
asVcommitted
p919
(lp920
g39
asVgrayson
p921
(lp922
g25
ag91
ag90
ag85
ag89
asVstill
p923
(lp924
g45
asVroots
p925
(lp926
g94
ag37
asVbefore
p927
(lp928
g31
asVgroup
p929
(lp930
g27
ag29
ag31
ag31
ag45
ag93
asVthank
p931
(lp932
g91
ag91
asVla
p933
(lp934
g89
asVpersonal
p935
(lp936
g94
ag33
ag31
asV28
p937
(lp938
g85
ag85
asVcrew
p939
(lp940
g81
ag9
ag64
ag25
ag41
ag41
ag35
ag94
ag83
ag37
ag91
ag91
ag39
ag86
ag90
ag92
ag87
ag33
ag85
ag27
ag29
ag43
ag89
ag89
ag88
ag88
ag47
ag237
ag237
ag315
ag395
ag31
ag45
ag93
asVwilling
p941
(lp942
g37
asVcompelling
p943
(lp944
g64
ag91
ag92
ag85
asVchoose
p945
(lp946
g81
ag81
ag81
ag81
ag9
ag9
ag9
ag9
ag64
ag64
ag64
ag64
ag64
ag25
ag25
ag25
ag25
ag41
ag41
ag41
ag41
ag35
ag35
ag35
ag35
ag94
ag94
ag94
ag94
ag83
ag83
ag83
ag83
ag37
ag37
ag37
ag37
ag91
ag91
ag91
ag91
ag91
ag39
ag39
ag39
ag39
ag86
ag86
ag86
ag86
ag90
ag90
ag90
ag90
ag92
ag92
ag92
ag92
ag92
ag87
ag87
ag87
ag87
ag33
ag33
ag33
ag33
ag85
ag85
ag85
ag85
ag27
ag27
ag27
ag27
ag29
ag29
ag29
ag29
ag43
ag43
ag43
ag43
ag89
ag89
ag89
ag89
ag88
ag88
ag88
ag88
ag47
ag47
ag47
ag47
ag237
ag237
ag237
ag237
ag315
ag315
ag315
ag315
ag395
ag395
ag395
ag395
ag31
ag31
ag31
ag31
ag45
ag45
ag45
ag45
ag93
ag93
ag93
ag93
asV2013
p947
(lp948
g81
ag9
ag64
ag25
ag41
ag35
ag94
ag83
ag37
ag91
ag39
ag86
ag90
ag92
ag87
ag33
ag85
ag27
ag29
ag43
ag89
ag88
ag47
ag237
ag315
ag395
ag31
ag45
ag93
asVkemp
p949
(lp950
g89
asVthen
p951
(lp952
g64
asVthem
p953
(lp954
g41
asVreturn
p955
(lp956
g81
ag9
ag64
ag25
ag41
ag35
ag94
ag83
ag37
ag91
ag39
ag86
ag90
ag92
ag87
ag33
ag85
ag27
ag29
ag29
ag43
ag89
ag88
ag47
ag237
ag315
ag395
ag31
ag45
ag93
asVfinance
p957
(lp958
g27
ag31
asVviews
p959
(lp960
g94
asVlambert
p961
(lp962
g91
asVgalleria
p963
(lp964
g47
ag237
ag315
ag395
asVfinish
p965
(lp966
g25
ag94
asVadams
p967
(lp968
g89
asVthey
p969
(lp970
g29
asVcommunities
p971
(lp972
g64
ag91
ag92
asVnurturing
p973
(lp974
g27
asVnow
p975
(lp976
g94
asVadventurous
p977
(lp978
g25
ag45
asVjosh
p979
(lp980
g89
asVgregorio
p981
(lp982
g91
asVname
p983
(lp984
g92
asVestranged
p985
(lp986
g25
asVl
p987
(lp988
g9
ag29
asVtruth
p989
(lp990
g85
asVshowcasing
p991
(lp992
g25
asVfound
p993
(lp994
g159
ag159
ag159
asVtrailer
p995
(lp996
g81
ag9
ag64
ag25
ag41
ag35
ag94
ag83
ag37
ag91
ag39
ag86
ag86
ag90
ag92
ag87
ag33
ag85
ag27
ag29
ag43
ag89
ag88
ag47
ag237
ag315
ag395
ag31
ag45
ag93
asVeveryone
p997
(lp998
g25
asVfinancial
p999
(lp1000
g64
ag33
asVlist
p1001
(lp1002
g92
asVglobe
p1003
(lp1004
g94
asVhard
p1005
(lp1006
g29
asVchallenges
p1007
(lp1008
g41
ag39
ag33
ag85
ag43
asVsociety
p1009
(lp1010
g43
ag45
asVgoogleanalyticsobject
p1011
(lp1012
g81
ag9
ag64
ag25
ag41
ag35
ag94
ag83
ag37
ag91
ag39
ag86
ag90
ag92
ag87
ag33
ag85
ag27
ag29
ag43
ag89
ag88
ag47
ag237
ag315
ag395
ag31
ag45
ag93
asVconnect
p1013
(lp1014
g81
ag9
ag64
ag64
ag25
ag41
ag35
ag35
ag94
ag83
ag37
ag91
ag39
ag86
ag90
ag92
ag87
ag33
ag85
ag27
ag29
ag43
ag89
ag88
ag47
ag237
ag315
ag395
ag31
ag45
ag93
asVour
p1015
(lp1016
g9
ag64
ag64
ag94
ag94
ag94
ag94
ag94
ag94
ag94
ag91
ag91
ag92
ag92
asVgirl
p1017
(lp1018
g94
asVbeyond
p1019
(lp1020
g64
ag41
ag33
asVspecial
p1021
(lp1022
g64
ag37
ag91
ag91
ag92
ag31
asVout
p1023
(lp1024
g9
ag94
ag91
ag91
ag85
ag85
asVtravels
p1025
(lp1026
g27
ag45
asVkagveker
p1027
(lp1028
g37
asVdriving
p1029
(lp1030
g33
asVhouse
p1031
(lp1032
g43
asVannounces
p1033
(lp1034
g94
asVcrucial
p1035
(lp1036
g41
asVyour
p1037
(lp1038
g81
ag81
ag81
ag81
ag9
ag9
ag9
ag9
ag64
ag64
ag64
ag64
ag64
ag25
ag25
ag25
ag25
ag41
ag41
ag41
ag41
ag35
ag35
ag35
ag35
ag94
ag94
ag94
ag94
ag94
ag83
ag83
ag83
ag83
ag37
ag37
ag37
ag37
ag91
ag91
ag91
ag91
ag39
ag39
ag39
ag39
ag86
ag86
ag86
ag86
ag90
ag90
ag90
ag90
ag92
ag92
ag92
ag92
ag87
ag87
ag87
ag87
ag33
ag33
ag33
ag33
ag85
ag85
ag85
ag85
ag27
ag27
ag27
ag27
ag29
ag29
ag29
ag29
ag43
ag43
ag43
ag43
ag89
ag89
ag89
ag89
ag88
ag88
ag88
ag88
ag47
ag47
ag47
ag47
ag237
ag237
ag237
ag237
ag315
ag315
ag315
ag315
ag395
ag395
ag395
ag395
ag31
ag31
ag31
ag31
ag45
ag45
ag45
ag45
ag93
ag93
ag93
ag93
asVstrangers
p1039
(lp1040
g85
asVre
p1041
(lp1042
g64
ag91
ag92
ag93
asVunforgettable
p1043
(lp1044
g94
asVsacramento
p1045
(lp1046
g85
asVforth
p1047
(lp1048
g85
asVcommon
p1049
(lp1050
g45
asVfoundation
p1051
(lp1052
g93
asVinteractions
p1053
(lp1054
g41
asVtense
p1055
(lp1056
g27
asVpageview
p1057
(lp1058
g81
ag9
ag64
ag25
ag41
ag35
ag94
ag83
ag37
ag91
ag39
ag86
ag90
ag92
ag87
ag33
ag85
ag27
ag29
ag43
ag89
ag88
ag47
ag237
ag315
ag395
ag31
ag45
ag93
asVlike
p1059
(lp1060
g45
asVpleasant
p1061
(lp1062
g31
asVancestry
p1063
(lp1064
g37
asVnisha
p1065
(lp1066
g9
ag25
ag25
ag25
ag25
ag25
ag25
ag41
ag41
ag41
ag41
ag35
ag35
ag94
ag94
ag37
ag39
ag39
ag39
ag90
ag33
ag33
ag85
ag85
ag85
ag85
ag85
ag27
ag29
ag43
ag89
ag31
ag45
asVmimi
p1067
(lp1068
g9
ag45
ag45
ag45
ag45
ag45
asVrandall
p1069
(lp1070
g91
asVg
p1071
(lp1072
g9
ag39
asVput
p1073
(lp1074
g31
asVdays
p1075
(lp1076
g27
asVtimes
p1077
(lp1078
g45
asVmotion
p1079
(lp1080
g89
asVliaison
p1081
(lp1082
g41
asVforging
p1083
(lp1084
g64
ag91
ag92
asVexhibited
p1085
(lp1086
g41
asVblood
p1087
(lp1088
g33
asVadoptees
p1089
(lp1090
g94
ag94
asVrooted
p1091
(lp1092
g39
asVevans
p1093
(lp1094
g91
asVblogger
p1095
(lp1096
g94
asVzac
p1097
(lp1098
g89
asVone
p1099
(lp1100
g41
ag35
ag35
ag33
ag33
asVintrospective
p1101
(lp1102
g85
asVart
p1103
(lp1104
g94
ag89
asVcomic
p1105
(lp1106
g27
asVstory
p1107
(lp1108
g64
ag91
ag92
ag85
asVscript
p1109
(lp1110
g81
ag81
ag81
ag9
ag9
ag9
ag64
ag64
ag64
ag25
ag25
ag25
ag41
ag41
ag41
ag35
ag35
ag35
ag94
ag94
ag94
ag83
ag83
ag83
ag37
ag37
ag37
ag91
ag91
ag91
ag39
ag39
ag39
ag86
ag86
ag86
ag90
ag90
ag90
ag92
ag92
ag92
ag87
ag87
ag87
ag33
ag33
ag33
ag85
ag85
ag85
ag27
ag27
ag27
ag29
ag29
ag29
ag43
ag43
ag43
ag89
ag89
ag89
ag88
ag88
ag88
ag47
ag47
ag47
ag237
ag237
ag237
ag315
ag315
ag315
ag395
ag395
ag395
ag31
ag31
ag31
ag45
ag45
ag45
ag93
ag93
ag93
asVtop
p1111
(lp1112
g81
ag9
ag64
ag25
ag41
ag35
ag94
ag83
ag37
ag91
ag39
ag86
ag90
ag92
ag87
ag33
ag85
ag27
ag29
ag43
ag89
ag88
ag47
ag237
ag315
ag395
ag31
ag45
ag93
asVadopted
p1113
(lp1114
g25
asVadoptee
p1115
(lp1116
g94
ag85
asVtheir
p1117
(lp1118
g35
ag43
ag43
ag45
ag45
ag45
asVidentity
p1119
(lp1120
g81
ag9
ag64
ag25
ag25
ag41
ag35
ag94
ag94
ag83
ag37
ag91
ag39
ag86
ag90
ag92
ag87
ag33
ag85
ag85
ag85
ag27
ag29
ag43
ag89
ag88
ag47
ag237
ag315
ag395
ag31
ag45
ag93
asVpains
p1121
(lp1122
g25
asVjohn
p1123
(lp1124
g91
asVfriend
p1125
(lp1126
g41
ag33
ag27
ag29
ag89
ag31
asVlisten
p1127
(lp1128
g94
asVfiery
p1129
(lp1130
g33
asVrelationship
p1131
(lp1132
g41
asVthat
p1133
(lp1134
g25
ag41
ag35
ag35
ag37
ag39
ag33
ag85
ag85
ag43
ag31
ag93
ag93
asVheritage
p1135
(lp1136
g27
asVstudies
p1137
(lp1138
g39
asVposter
p1139
(lp1140
g89
asVforward
p1141
(lp1142
g33
asVpart
p1143
(lp1144
g64
ag91
ag92
ag93
asVloving
p1145
(lp1146
g43
asVcopy
p1147
(lp1148
g64
asVappreciated
p1149
(lp1150
g91
asVlucas
p1151
(lp1152
g89
asVkind
p1153
(lp1154
g35
ag29
asVben
p1155
(lp1156
g89
asVshowed
p1157
(lp1158
g41
ag45
asVpatriarchic
p1159
(lp1160
g43
asVchenette
p1161
(lp1162
g89
asVproject
p1163
(lp1164
g94
ag94
ag33
ag31
asVmatter
p1165
(lp1166
g91
asVfuture
p1167
(lp1168
g25
asVproviding
p1169
(lp1170
g27
ag43
ag43
asVmigration
p1171
(lp1172
g37
asVand
p1173
(lp1174
g64
ag64
ag64
ag64
ag64
ag25
ag25
ag25
ag25
ag25
ag25
ag41
ag41
ag41
ag41
ag41
ag41
ag35
ag35
ag94
ag94
ag94
ag94
ag94
ag94
ag37
ag37
ag37
ag37
ag37
ag37
ag91
ag91
ag91
ag91
ag91
ag91
ag39
ag39
ag39
ag39
ag39
ag39
ag92
ag33
ag33
ag33
ag33
ag33
ag85
ag85
ag85
ag85
ag85
ag85
ag85
ag85
ag85
ag85
ag27
ag27
ag27
ag27
ag29
ag29
ag29
ag43
ag43
ag43
ag43
ag43
ag43
ag89
ag31
ag45
ag45
ag45
ag45
ag45
ag93
asVbridge
p1175
(lp1176
g41
asVana
p1177
(lp1178
g91
asVcohen
p1179
(lp1180
g89
asVnaik
p1181
(lp1182
g35
asVmind
p1183
(lp1184
g85
asVsay
p1185
(lp1186
g94
asVgala
p1187
(lp1188
g94
asVhave
p1189
(lp1190
g94
ag91
ag93
asVneed
p1191
(lp1192
g64
ag94
asVaged
p1193
(lp1194
g37
asVkevin
p1195
(lp1196
g94
ag91
asVray
p1197
(lp1198
g91
ag91
ag90
ag33
ag27
ag89
ag89
asVshowcased
p1199
(lp1200
g35
asVgenuine
p1201
(lp1202
g25
ag41
asVself
p1203
(lp1204
g25
ag45
asVanswering
p1205
(lp1206
g35
asVeubank
p1207
(lp1208
g89
asVinvestment
p1209
(lp1210
g91
asValso
p1211
(lp1212
g31
ag45
asVsquad
p1213
(lp1214
g9
asVwhich
p1215
(lp1216
g35
asVshowcases
p1217
(lp1218
g37
ag31
asVbailey
p1219
(lp1220
g94
asVkoream
p1221
(lp1222
g94
asVencouraged
p1223
(lp1224
g33
asVpain
p1225
(lp1226
g85
asVadversities
p1227
(lp1228
g33
asVwho
p1229
(lp1230
g41
ag41
ag91
ag85
ag29
ag31
ag45
asVlooming
p1231
(lp1232
g29
asVmost
p1233
(lp1234
g41
ag41
ag35
ag27
ag27
asVdonation
p1235
(lp1236
g91
asVexperiences
p1237
(lp1238
g94
ag85
asVamongst
p1239
(lp1240
g31
asVsignificant
p1241
(lp1242
g41
ag27
asVservices
p1243
(lp1244
g94
asVgrateful
p1245
(lp1246
g91
asVmarie
p1247
(lp1248
g91
asVuk
p1249
(lp1250
g45
asVpremdas
p1251
(lp1252
g91
asVdon
p1253
(lp1254
g64
ag91
ag92
asVreinforcement
p1255
(lp1256
g27
asVmobile
p1257
(lp1258
g92
asVdoc
p1259
(lp1260
g159
asVconsumed
p1261
(lp1262
g45
asVtraditional
p1263
(lp1264
g39
asVdeclassified
p1265
(lp1266
g94
asVreflections
p1267
(lp1268
g35
asVfjs
p1269
(lp1270
g81
ag81
ag9
ag9
ag64
ag64
ag25
ag25
ag41
ag41
ag35
ag35
ag94
ag94
ag83
ag83
ag37
ag37
ag91
ag91
ag39
ag39
ag86
ag86
ag90
ag90
ag92
ag92
ag87
ag87
ag33
ag33
ag85
ag85
ag27
ag27
ag29
ag29
ag43
ag43
ag89
ag89
ag88
ag88
ag47
ag47
ag237
ag237
ag315
ag315
ag395
ag395
ag31
ag31
ag45
ag45
ag93
ag93
asVprofessional
p1271
(lp1272
g33
asVentertaining
p1273
(lp1274
g45
asVmailing
p1275
(lp1276
g92
asV43760859
p1277
(lp1278
g81
ag9
ag64
ag25
ag41
ag35
ag94
ag83
ag37
ag91
ag39
ag86
ag90
ag92
ag87
ag33
ag85
ag27
ag29
ag43
ag89
ag88
ag47
ag237
ag315
ag395
ag31
ag45
ag93
asVjoining
p1279
(lp1280
g64
asVinspire
p1281
(lp1282
g91
asVpreproduction
p1283
(lp1284
g31
asVsaga
p1285
(lp1286
g85
asVtext
p1287
(lp1288
g92
asVdiscovered
p1289
(lp1290
g39
asVbring
p1291
(lp1292
g64
ag91
ag92
asVplanning
p1293
(lp1294
g29
asVfind
p1295
(lp1296
g9
ag85
asVcompletion
p1297
(lp1298
g33
asVinspiring
p1299
(lp1300
g33
ag85
ag27
asVtrying
p1301
(lp1302
g27
asVknowledge
p1303
(lp1304
g41
ag37
ag39
asVdawn
p1305
(lp1306
g89
asVwith
p1307
(lp1308
g64
ag64
ag64
ag25
ag25
ag25
ag41
ag41
ag41
ag35
ag94
ag94
ag37
ag37
ag39
ag39
ag39
ag85
ag85
ag85
ag85
ag85
ag29
ag29
ag43
ag43
ag31
ag31
ag45
ag45
asVranda
p1309
(lp1310
g91
asVshort
p1311
(lp1312
g85
asVhere
p1313
(lp1314
g91
ag93
asVbeing
p1315
(lp1316
g33
asVtheme
p1317
(lp1318
g41
asVdeepest
p1319
(lp1320
g25
ag41
asVrich
p1321
(lp1322
g35
ag39
asVpursuing
p1323
(lp1324
g85
asVposted
p1325
(lp1326
g94
ag94
asVlocal
p1327
(lp1328
g35
ag45
asVhope
p1329
(lp1330
g91
ag85
asVdo
p1331
(lp1332
g64
asVhis
p1333
(lp1334
g41
ag41
ag35
ag35
ag37
ag37
ag39
ag39
ag29
ag29
ag31
ag31
ag31
asVklein
p1335
(lp1336
g91
asVmeans
p1337
(lp1338
g33
asVassistant
p1339
(lp1340
g89
ag89
asVrest
p1341
(lp1342
g29
asVprogress
p1343
(lp1344
g85
asVduring
p1345
(lp1346
g35
ag94
ag39
ag27
ag29
ag31
asVconsiderate
p1347
(lp1348
g35
asVroles
p1349
(lp1350
g33
asVartist
p1351
(lp1352
g35
asVvollmers
p1353
(lp1354
g94
ag91
asVshe
p1355
(lp1356
g37
ag33
ag33
ag85
ag85
ag43
ag43
asVrelease
p1357
(lp1358
g94
asVscott
p1359
(lp1360
g91
asVamanda
p1361
(lp1362
g94
asVhusband
p1363
(lp1364
g43
asVview
p1365
(lp1366
g81
ag9
ag64
ag25
ag41
ag35
ag94
ag83
ag37
ag37
ag91
ag39
ag86
ag90
ag92
ag87
ag33
ag85
ag27
ag29
ag43
ag89
ag88
ag47
ag237
ag315
ag395
ag31
ag45
ag93
asVethical
p1367
(lp1368
g94
asVset
p1369
(lp1370
g85
asVinns
p1371
(lp1372
g35
asVdecided
p1373
(lp1374
g93
asVconnections
p1375
(lp1376
g25
ag25
asVculture
p1377
(lp1378
g35
ag39
asVkeenan
p1379
(lp1380
g91
asVactively
p1381
(lp1382
g29
asVare
p1383
(lp1384
g25
ag94
ag93
asVpacked
p1385
(lp1386
g85
asVsubject
p1387
(lp1388
g90
asVreform
p1389
(lp1390
g94
asVjoys
p1391
(lp1392
g25
asVplease
p1393
(lp1394
g93
asVenough
p1395
(lp1396
g45
asVdetermined
p1397
(lp1398
g39
ag33
asVmelissa
p1399
(lp1400
g94
asVbetween
p1401
(lp1402
g41
ag39
asVcomplications
p1403
(lp1404
g33
asVdonate
p1405
(lp1406
g81
ag9
ag64
ag25
ag41
ag35
ag94
ag83
ag37
ag91
ag91
ag91
ag39
ag86
ag90
ag92
ag87
ag33
ag85
ag27
ag29
ag43
ag89
ag88
ag47
ag237
ag315
ag395
ag31
ag45
ag93
asVemail
p1407
(lp1408
g92
ag92
asVability
p1409
(lp1410
g31
asVnature
p1411
(lp1412
g35
ag37
asVkristal
p1413
(lp1414
g94
asVattention
p1415
(lp1416
g35
asVjs
p1417
(lp1418
g81
ag81
ag9
ag9
ag64
ag64
ag25
ag25
ag41
ag41
ag35
ag35
ag94
ag94
ag83
ag83
ag37
ag37
ag91
ag91
ag39
ag39
ag86
ag86
ag90
ag90
ag92
ag92
ag87
ag87
ag33
ag33
ag85
ag85
ag27
ag27
ag29
ag29
ag43
ag43
ag89
ag89
ag88
ag88
ag47
ag47
ag237
ag237
ag315
ag315
ag395
ag395
ag31
ag31
ag45
ag45
ag93
ag93
asVjob
p1419
(lp1420
g29
asVanswers
p1421
(lp1422
g25
ag41
ag85
asVkey
p1423
(lp1424
g25
asVdedication
p1425
(lp1426
g33
asVcome
p1427
(lp1428
g85
ag85
asVperkins
p1429
(lp1430
g89
asVboth
p1431
(lp1432
g33
asVlookbook
p1433
(lp1434
g47
ag237
ag315
ag395
asVinvited
p1435
(lp1436
g64
ag91
ag92
asVjanela
p1437
(lp1438
g89
asVs
p1439
(lp1440
g81
ag9
ag64
ag64
ag25
ag25
ag41
ag41
ag41
ag35
ag35
ag35
ag94
ag94
ag94
ag94
ag83
ag37
ag91
ag91
ag91
ag91
ag39
ag39
ag86
ag90
ag92
ag87
ag33
ag33
ag85
ag85
ag85
ag27
ag27
ag27
ag29
ag29
ag43
ag43
ag43
ag89
ag88
ag47
ag237
ag315
ag395
ag31
ag45
ag45
ag93
asVbrad
p1441
(lp1442
g94
ag90
ag89
ag93
asVcomes
p1443
(lp1444
g85
ag85
asVcomment
p1445
(lp1446
g81
ag9
ag64
ag25
ag41
ag35
ag94
ag83
ag37
ag91
ag39
ag86
ag90
ag92
ag92
ag92
ag87
ag33
ag85
ag27
ag29
ag43
ag89
ag88
ag47
ag237
ag315
ag395
ag31
ag45
ag93
asVbell
p1447
(lp1448
g94
asVsimple
p1449
(lp1450
g37
ag91
asVhad
p1451
(lp1452
g41
ag94
ag85
asVca
p1453
(lp1454
g85
asVubuntu
p1455
(lp1456
g159
asVcommunity
p1457
(lp1458
g41
asV2nd
p1459
(lp1460
g89
asVsubscribe
p1461
(lp1462
g92
asVvillage
p1463
(lp1464
g35
asVtony
p1465
(lp1466
g9
ag41
ag41
ag41
ag41
ag41
ag41
ag41
ag43
ag45
asVopenness
p1467
(lp1468
g37
asVtrust
p1469
(lp1470
g41
asVepitome
p1471
(lp1472
g33
asVnicole
p1473
(lp1474
g91
asVcaring
p1475
(lp1476
g41
asVperspectives
p1477
(lp1478
g41
asVkimberly
p1479
(lp1480
g91
asVcreate
p1481
(lp1482
g81
ag9
ag64
ag25
ag41
ag35
ag94
ag83
ag37
ag91
ag39
ag86
ag90
ag92
ag87
ag33
ag85
ag85
ag27
ag29
ag43
ag89
ag88
ag47
ag237
ag315
ag395
ag31
ag45
ag93
asVclassic
p1483
(lp1484
g47
ag237
ag315
ag395
asVmuch
p1485
(lp1486
g33
ag27
asVinterest
p1487
(lp1488
g41
ag43
ag45
asVextends
p1489
(lp1490
g64
asVmeeting
p1491
(lp1492
g41
asVwarmth
p1493
(lp1494
g45
asVlife
p1495
(lp1496
g41
ag43
asVlived
p1497
(lp1498
g37
ag39
asVdiversity
p1499
(lp1500
g94
asVandrew
p1501
(lp1502
g89
asVnew
p1503
(lp1504
g29
asVgap
p1505
(lp1506
g41
asVcenterpiece
p1507
(lp1508
g25
asVdetermination
p1509
(lp1510
g85
asVgraphics
p1511
(lp1512
g89
asVwhen
p1513
(lp1514
g85
ag85
asVextensive
p1515
(lp1516
g39
asVpresent
p1517
(lp1518
g25
ag41
asVwelcoming
p1519
(lp1520
g37
asVlook
p1521
(lp1522
g94
asVchoices
p1523
(lp1524
g29
asVwill
p1525
(lp1526
g85
asVongoing
p1527
(lp1528
g91
asVovercome
p1529
(lp1530
g33
asVfun
p1531
(lp1532
g29
ag31
asVrinny
p1533
(lp1534
g89
asVvoice
p1535
(lp1536
g94
asVunlikely
p1537
(lp1538
g85
asVforce
p1539
(lp1540
g33
asVplayed
p1541
(lp1542
g33
asVis
p1543
(lp1544
g64
ag64
ag25
ag25
ag25
ag25
ag41
ag41
ag35
ag94
ag91
ag91
ag39
ag39
ag33
ag33
ag33
ag33
ag85
ag85
ag27
ag27
ag29
ag43
ag31
ag31
ag45
asVlush
p1545
(lp1546
g39
asVit
p1547
(lp1548
g64
ag94
ag91
ag91
ag91
ag39
ag33
ag33
ag85
ag85
ag85
asVencouragement
p1549
(lp1550
g29
asVhelped
p1551
(lp1552
g35
ag33
asVitself
p1553
(lp1554
g25
asVoptimistic
p1555
(lp1556
g25
asVin
p1557
(lp1558
g25
ag25
ag25
ag25
ag41
ag41
ag35
ag94
ag94
ag37
ag39
ag85
ag85
ag85
ag85
ag85
ag85
ag29
ag43
ag43
ag43
ag31
ag31
ag45
ag45
asVready
p1559
(lp1560
g64
asVmotivated
p1561
(lp1562
g41
asVid
p1563
(lp1564
g81
ag81
ag9
ag9
ag64
ag64
ag25
ag25
ag41
ag41
ag35
ag35
ag94
ag94
ag83
ag83
ag37
ag37
ag91
ag91
ag39
ag39
ag86
ag86
ag90
ag90
ag92
ag92
ag87
ag87
ag33
ag33
ag85
ag85
ag27
ag27
ag29
ag29
ag43
ag43
ag89
ag89
ag88
ag88
ag47
ag47
ag237
ag237
ag315
ag315
ag395
ag395
ag31
ag31
ag45
ag45
ag93
ag93
asVaround
p1565
(lp1566
g94
asVshar
p1567
(lp1568
g33
asVbags
p1569
(lp1570
g85
asVdescent
p1571
(lp1572
g31
asVperhaps
p1573
(lp1574
g45
asVmedia
p1575
(lp1576
g89
ag89
asVmake
p1577
(lp1578
g64
asVconnection
p1579
(lp1580
g39
asVtrip
p1581
(lp1582
g31
asVport
p1583
(lp1584
g159
asVunity
p1585
(lp1586
g94
asVcomplex
p1587
(lp1588
g25
asVfollowers
p1589
(lp1590
g25
asVdifficult
p1591
(lp1592
g29
asVstatus
p1593
(lp1594
g37
asVindependent
p1595
(lp1596
g94
asVhaebeom
p1597
(lp1598
g94
ag91
asVliterature
p1599
(lp1600
g94
asVhttp
p1601
(lp1602
g81
ag9
ag64
ag25
ag41
ag35
ag94
ag83
ag37
ag91
ag39
ag86
ag90
ag92
ag87
ag33
ag85
ag27
ag29
ag43
ag89
ag88
ag47
ag237
ag315
ag395
ag31
ag45
ag93
asVclosest
p1603
(lp1604
g85
asVsamantha
p1605
(lp1606
g91
asVfaces
p1607
(lp1608
g85
ag29
ag31
asVupon
p1609
(lp1610
g41
asVdiffering
p1611
(lp1612
g41
asVhand
p1613
(lp1614
g93
asVdirector
p1615
(lp1616
g90
ag89
asVopportunity
p1617
(lp1618
g64
asVwarming
p1619
(lp1620
g35
asVoff
p1621
(lp1622
g85
asVreflection
p1623
(lp1624
g25
asVstephanie
p1625
(lp1626
g91
asVcontest
p1627
(lp1628
g94
ag94
asVsynopsis
p1629
(lp1630
g85
asVcontact
p1631
(lp1632
g81
ag9
ag64
ag25
ag41
ag35
ag94
ag83
ag37
ag91
ag39
ag86
ag90
ag90
ag92
ag87
ag33
ag85
ag27
ag29
ag43
ag89
ag88
ag47
ag237
ag315
ag395
ag31
ag45
ag93
ag93
asVchronicles
p1633
(lp1634
g85
asVrelief
p1635
(lp1636
g27
asVmother
p1637
(lp1638
g25
ag35
ag94
ag85
asVthe
p1639
(lp1640
g9
ag64
ag64
ag64
ag64
ag64
ag64
ag25
ag25
ag25
ag25
ag25
ag25
ag25
ag41
ag41
ag41
ag41
ag41
ag41
ag41
ag41
ag41
ag41
ag41
ag41
ag41
ag35
ag35
ag35
ag35
ag35
ag94
ag94
ag94
ag94
ag94
ag94
ag94
ag37
ag37
ag37
ag91
ag91
ag91
ag91
ag91
ag91
ag91
ag91
ag39
ag39
ag39
ag39
ag39
ag92
ag33
ag33
ag33
ag33
ag33
ag85
ag85
ag85
ag85
ag85
ag85
ag85
ag27
ag27
ag27
ag27
ag29
ag29
ag29
ag29
ag29
ag29
ag29
ag43
ag43
ag43
ag159
ag31
ag31
ag31
ag31
ag31
ag31
ag31
ag45
ag45
ag45
asVaudio
p1641
(lp1642
g89
asVambassador
p1643
(lp1644
g64
ag45
asVresponsible
p1645
(lp1646
g43
asVklemestrud
p1647
(lp1648
g91
asVtraditions
p1649
(lp1650
g39
asVjust
p1651
(lp1652
g64
ag91
ag92
ag33
ag85
asVmoments
p1653
(lp1654
g35
ag27
asVknowledgeable
p1655
(lp1656
g37
ag31
asVvaluable
p1657
(lp1658
g39
asVnot
p1659
(lp1660
g159
ag159
ag159
asVunderlying
p1661
(lp1662
g41
ag85
asVthanks
p1663
(lp1664
g64
asVquestions
p1665
(lp1666
g41
ag35
ag85
ag85
asVworld
p1667
(lp1668
g64
ag64
ag25
ag41
ag37
asVmove
p1669
(lp1670
g45
asVgenerous
p1671
(lp1672
g91
asVcut
p1673
(lp1674
g27
asVfamily
p1675
(lp1676
g81
ag9
ag9
ag64
ag25
ag41
ag41
ag35
ag94
ag94
ag83
ag37
ag91
ag91
ag91
ag91
ag91
ag39
ag86
ag90
ag92
ag87
ag33
ag85
ag85
ag85
ag27
ag29
ag43
ag43
ag89
ag88
ag47
ag237
ag315
ag395
ag31
ag31
ag31
ag45
ag93
asVjssdk
p1677
(lp1678
g81
ag9
ag64
ag25
ag41
ag35
ag94
ag83
ag37
ag91
ag39
ag86
ag90
ag92
ag87
ag33
ag85
ag27
ag29
ag43
ag89
ag88
ag47
ag237
ag315
ag395
ag31
ag45
ag93
asVnoah
p1679
(lp1680
g89
asVcharacter
p1681
(lp1682
g25
ag85
asVday
p1683
(lp1684
g94
ag33
asVblog
p1685
(lp1686
g94
ag94
ag94
asVsource
p1687
(lp1688
g41
asVshout
p1689
(lp1690
g91
asVspread
p1691
(lp1692
g94
asVadoption
p1693
(lp1694
g94
ag94
ag94
ag85
asVeasy
p1695
(lp1696
g64
asVtechnological
p1697
(lp1698
g39
asVtax
p1699
(lp1700
g91
asVhas
p1701
(lp1702
g94
asVnate
p1703
(lp1704
g89
asVtests
p1705
(lp1706
g85
asVcaptivating
p1707
(lp1708
g35
asVfate
p1709
(lp1710
g35
asVformat
p1711
(lp1712
g92
asVread
p1713
(lp1714
g94
asVshowing
p1715
(lp1716
g41
asVpossible
p1717
(lp1718
g29
asVearly
p1719
(lp1720
g29
ag31
asVfinding
p1721
(lp1722
g35
asVproceeds
p1723
(lp1724
g31
asVquest
p1725
(lp1726
g25
ag41
ag85
asVknow
p1727
(lp1728
g35
asVbirth
p1729
(lp1730
g25
ag35
ag39
ag85
asVpress
p1731
(lp1732
g81
ag9
ag64
ag25
ag41
ag35
ag94
ag94
ag94
ag83
ag37
ag91
ag39
ag86
ag90
ag92
ag87
ag33
ag85
ag27
ag29
ag43
ag89
ag88
ag47
ag237
ag315
ag395
ag31
ag45
ag93
asVimmediately
p1733
(lp1734
g41
asVunique
p1735
(lp1736
g37
asVrebecca
p1737
(lp1738
g91
asVcolor
p1739
(lp1740
g89
asVhelpful
p1741
(lp1742
g37
ag39
asVgift
p1743
(lp1744
g81
ag9
ag64
ag64
ag25
ag41
ag35
ag94
ag83
ag37
ag91
ag91
ag39
ag86
ag90
ag92
ag87
ag33
ag85
ag27
ag29
ag43
ag89
ag88
ag47
ag237
ag315
ag395
ag31
ag45
ag93
asVinviting
p1745
(lp1746
g25
ag35
asVgifted
p1747
(lp1748
g91
asVhtml
p1749
(lp1750
g92
asVserves
p1751
(lp1752
g41
asVserver
p1753
(lp1754
g159
ag159
asVaudience
p1755
(lp1756
g94
asVcontinue
p1757
(lp1758
g29
ag31
asVdonations
p1759
(lp1760
g91
asVt
p1761
(lp1762
g64
ag91
ag92
asVevolutions
p1763
(lp1764
g39
asVserved
p1765
(lp1766
g39
ag45
asVnice
p1767
(lp1768
g31
asVmaking
p1769
(lp1770
g29
asVright
p1771
(lp1772
g85
asVpeople
p1773
(lp1774
g37
ag91
ag88
ag47
asVhumorous
p1775
(lp1776
g41
asVtwitter
p1777
(lp1778
g81
ag9
ag64
ag64
ag25
ag41
ag35
ag94
ag83
ag37
ag91
ag39
ag86
ag90
ag92
ag87
ag33
ag85
ag27
ag29
ag43
ag89
ag88
ag47
ag237
ag315
ag395
ag31
ag45
ag93
asVsequeira
p1779
(lp1780
g94
asVsome
p1781
(lp1782
g93
asVback
p1783
(lp1784
g81
ag9
ag64
ag25
ag25
ag41
ag41
ag35
ag35
ag94
ag83
ag37
ag37
ag91
ag39
ag39
ag86
ag90
ag92
ag87
ag33
ag33
ag85
ag85
ag27
ag27
ag29
ag29
ag43
ag43
ag89
ag88
ag47
ag47
ag237
ag237
ag315
ag315
ag395
ag395
ag31
ag31
ag45
ag45
ag93
asVtumblr
p1785
(lp1786
g64
ag87
asVborn
p1787
(lp1788
g25
ag39
asVproductions
p1789
(lp1790
g81
ag9
ag64
ag25
ag41
ag35
ag94
ag83
ag37
ag91
ag39
ag86
ag90
ag92
ag87
ag33
ag85
ag27
ag29
ag43
ag89
ag88
ag47
ag237
ag315
ag395
ag31
ag45
ag93
asVduration
p1791
(lp1792
g41
asVhome
p1793
(lp1794
g81
ag9
ag64
ag25
ag41
ag35
ag94
ag94
ag83
ag37
ag37
ag91
ag39
ag86
ag90
ag92
ag87
ag33
ag85
ag85
ag27
ag29
ag43
ag43
ag89
ag88
ag47
ag237
ag315
ag395
ag31
ag45
ag93
asVunrivaled
p1795
(lp1796
g33
asVthroughout
p1797
(lp1798
g41
ag27
ag45
asVlead
p1799
(lp1800
g64
ag64
ag91
ag92
ag85
asVbroad
p1801
(lp1802
g37
asVlend
p1803
(lp1804
g93
asVcreative
p1805
(lp1806
g33
ag27
asVwitty
p1807
(lp1808
g27
asVappreciative
p1809
(lp1810
g91
asVlara
p1811
(lp1812
g91
ag29
asVlandscape
p1813
(lp1814
g88
ag395
asVprovides
p1815
(lp1816
g37
ag43
asVsteps
p1817
(lp1818
g85
asVforks
p1819
(lp1820
g85
asVleader
p1821
(lp1822
g64
ag33
asVlocalhost
p1823
(lp1824
g159
asVbe
p1825
(lp1826
g64
ag64
ag64
ag91
ag92
asVpatient
p1827
(lp1828
g29
asVhitesh
p1829
(lp1830
g9
ag31
ag31
ag31
ag31
ag31
asVmarketing
p1831
(lp1832
g89
ag89
ag89
asVpressure
p1833
(lp1834
g31
asVstep
p1835
(lp1836
g31
asVfractured
p1837
(lp1838
g91
asVfrom
p1839
(lp1840
g25
ag41
ag94
ag37
ag37
ag33
ag33
ag33
ag85
ag85
ag85
ag27
ag29
ag31
ag31
asVpost
p1841
(lp1842
g89
ag89
asVpaste
p1843
(lp1844
g64
asVby
p1845
(lp1846
g64
ag41
ag94
ag94
ag37
ag91
ag45
asVraise
p1847
(lp1848
g94
asVon
p1849
(lp1850
g64
ag64
ag25
ag25
ag94
ag94
ag94
ag37
ag33
ag85
ag29
ag43
ag159
asVabout
p1851
(lp1852
g9
ag25
ag41
ag35
ag35
ag94
ag94
ag94
ag94
ag94
ag94
ag39
ag85
asVwould
p1853
(lp1854
g93
asVorigins
p1855
(lp1856
g39
asVobi
p1857
(lp1858
g91
asVof
p1859
(lp1860
g64
ag64
ag64
ag25
ag25
ag25
ag41
ag41
ag35
ag35
ag35
ag94
ag94
ag37
ag91
ag91
ag39
ag39
ag39
ag92
ag33
ag33
ag33
ag85
ag85
ag85
ag85
ag85
ag85
ag27
ag29
ag29
ag29
ag29
ag43
ag31
ag31
ag93
asVidu
p1861
(lp1862
g94
ag94
asVasha
p1863
(lp1864
g91
asVboldly
p1865
(lp1866
g41
asVsweat
p1867
(lp1868
g33
asVmixed
p1869
(lp1870
g94
asVconnected
p1871
(lp1872
g45
ag45
asVefforts
p1873
(lp1874
g29
ag31
asVdocumentary
p1875
(lp1876
g81
ag9
ag64
ag25
ag41
ag35
ag94
ag83
ag37
ag91
ag39
ag86
ag90
ag92
ag87
ag33
ag85
ag27
ag29
ag43
ag89
ag88
ag47
ag237
ag315
ag395
ag31
ag45
ag93
asVor
p1877
(lp1878
g81
ag81
ag81
ag81
ag81
ag9
ag9
ag9
ag9
ag9
ag64
ag64
ag64
ag64
ag64
ag25
ag25
ag25
ag25
ag25
ag41
ag41
ag41
ag41
ag41
ag35
ag35
ag35
ag35
ag35
ag94
ag94
ag94
ag94
ag94
ag83
ag83
ag83
ag83
ag83
ag37
ag37
ag37
ag37
ag37
ag91
ag91
ag91
ag91
ag91
ag91
ag39
ag39
ag39
ag39
ag39
ag86
ag86
ag86
ag86
ag86
ag90
ag90
ag90
ag90
ag90
ag92
ag92
ag92
ag92
ag92
ag87
ag87
ag87
ag87
ag87
ag33
ag33
ag33
ag33
ag33
ag85
ag85
ag85
ag85
ag85
ag27
ag27
ag27
ag27
ag27
ag29
ag29
ag29
ag29
ag29
ag29
ag43
ag43
ag43
ag43
ag43
ag89
ag89
ag89
ag89
ag89
ag88
ag88
ag88
ag88
ag88
ag47
ag47
ag47
ag47
ag47
ag237
ag237
ag237
ag237
ag237
ag315
ag315
ag315
ag315
ag315
ag395
ag395
ag395
ag395
ag395
ag31
ag31
ag31
ag31
ag31
ag45
ag45
ag45
ag45
ag45
ag93
ag93
ag93
ag93
ag93
ag93
asVblock
p1879
(lp1880
g81
ag9
ag64
ag25
ag41
ag35
ag94
ag83
ag37
ag91
ag39
ag86
ag90
ag92
ag87
ag33
ag85
ag27
ag29
ag43
ag89
ag88
ag47
ag237
ag315
ag395
ag31
ag45
ag93
asVida
p1881
(lp1882
g9
ag43
ag43
ag43
ag45
asVdisclosure
p1883
(lp1884
g25
asVfundraising
p1885
(lp1886
g94
ag29
ag31
asVinto
p1887
(lp1888
g25
ag25
ag41
ag37
ag37
asVwithin
p1889
(lp1890
g43
ag43
asVcommitment
p1891
(lp1892
g39
ag33
ag85
ag85
ag31
asVgomes
p1893
(lp1894
g39
asVinvolvement
p1895
(lp1896
g41
asVfemale
p1897
(lp1898
g43
asVnext
p1899
(lp1900
g31
asVresilience
p1901
(lp1902
g81
ag9
ag64
ag25
ag41
ag35
ag94
ag83
ag37
ag91
ag39
ag86
ag90
ag92
ag87
ag33
ag85
ag85
ag85
ag27
ag29
ag43
ag89
ag88
ag47
ag237
ag315
ag395
ag31
ag45
ag93
asVsanvidge
p1903
(lp1904
g91
asV1983
p1905
(lp1906
g25
asVher
p1907
(lp1908
g25
ag25
ag25
ag25
ag25
ag25
ag41
ag35
ag35
ag94
ag94
ag94
ag94
ag37
ag39
ag39
ag39
ag33
ag33
ag33
ag85
ag85
ag85
ag85
ag85
ag85
ag85
ag85
ag85
ag43
ag43
ag45
ag45
ag45
asVarea
p1909
(lp1910
g39
asVsupport
p1911
(lp1912
g64
ag41
ag91
ag27
ag31
asVdaniels
p1913
(lp1914
g91
asVpartnership
p1915
(lp1916
g91
asVlong
p1917
(lp1918
g27
asVstart
p1919
(lp1920
g25
ag29
asVconservation
p1921
(lp1922
g39
asVeditor
p1923
(lp1924
g89
ag89
ag89
asVseries
p1925
(lp1926
g85
asVvar
p1927
(lp1928
g81
ag9
ag64
ag25
ag41
ag35
ag94
ag83
ag37
ag91
ag39
ag86
ag90
ag92
ag87
ag33
ag85
ag27
ag29
ag43
ag89
ag88
ag47
ag237
ag315
ag395
ag31
ag45
ag93
asVwas
p1929
(lp1930
g41
ag35
ag37
ag39
ag39
ag33
ag85
ag29
ag29
ag159
asVtireless
p1931
(lp1932
g41
asVfunds
p1933
(lp1934
g94
ag94
asVextended
p1935
(lp1936
g41
asVlink
p1937
(lp1938
g64
ag91
asVlinh
p1939
(lp1940
g91
asVpodcast
p1941
(lp1942
g94
asVtrue
p1943
(lp1944
g25
ag85
ag43
asVraising
p1945
(lp1946
g94
asVhe
p1947
(lp1948
g41
ag41
ag37
ag37
asVmade
p1949
(lp1950
g91
asVwise
p1951
(lp1952
g39
asVjoelson
p1953
(lp1954
g91
asVplaces
p1955
(lp1956
g88
ag315
asVwhether
p1957
(lp1958
g29
asVlorelei
p1959
(lp1960
g91
asVchaperone
p1961
(lp1962
g41
asVup
p1963
(lp1964
g45
asVus
p1965
(lp1966
g64
ag64
ag25
ag94
ag29
ag93
asVurl
p1967
(lp1968
g159
asVbelow
p1969
(lp1970
g64
asVeconomic
p1971
(lp1972
g39
asVstories
p1973
(lp1974
g94
ag94
asVmature
p1975
(lp1976
g43
asVemotional
p1977
(lp1978
g25
ag85
ag27
ag31
asVstages
p1979
(lp1980
g29
ag31
asVua
p1981
(lp1982
g81
ag9
ag64
ag25
ag41
ag35
ag94
ag83
ag37
ag91
ag39
ag86
ag90
ag92
ag87
ag33
ag85
ag27
ag29
ag43
ag89
ag88
ag47
ag237
ag315
ag395
ag31
ag45
ag93
asVsupervisor
p1983
(lp1984
g89
ag89
ag89
asVexpedition
p1985
(lp1986
g25
asVdirection
p1987
(lp1988
g85
asVdeep
p1989
(lp1990
g94
ag37
ag85
asVan
p1991
(lp1992
g64
ag94
ag91
ag85
ag85
ag43
asVsibling
p1993
(lp1994
g33
asVas
p1995
(lp1996
g41
ag41
ag41
ag39
ag33
ag33
ag33
ag29
ag43
ag45
ag45
asVexist
p1997
(lp1998
g43
asVat
p1999
(lp2000
g35
ag35
ag94
ag159
ag45
asVcurious
p2001
(lp2002
g45
asVcheck
p2003
(lp2004
g94
ag94
asVfilm
p2005
(lp2006
g64
ag25
ag25
ag41
ag94
ag94
ag94
ag94
ag94
ag94
ag91
ag91
ag91
ag33
asVmultiracial
p2007
(lp2008
g27
asVincredible
p2009
(lp2010
g64
ag91
ag92
asVauthoritative
p2011
(lp2012
g43
asVfears
p2013
(lp2014
g25
asVbrings
p2015
(lp2016
g85
asVforge
p2017
(lp2018
g33
asVyou
p2019
(lp2020
g81
ag81
ag9
ag9
ag64
ag64
ag64
ag64
ag64
ag64
ag25
ag25
ag25
ag41
ag41
ag41
ag35
ag35
ag94
ag94
ag94
ag94
ag83
ag83
ag37
ag37
ag91
ag91
ag91
ag91
ag91
ag91
ag39
ag39
ag86
ag86
ag90
ag90
ag92
ag92
ag92
ag87
ag87
ag33
ag33
ag33
ag85
ag85
ag85
ag85
ag85
ag27
ag27
ag27
ag29
ag29
ag29
ag43
ag43
ag89
ag89
ag88
ag88
ag47
ag47
ag237
ag237
ag315
ag315
ag395
ag395
ag31
ag31
ag45
ag45
ag93
ag93
ag93
asVartistic
p2021
(lp2022
g35
asVrequested
p2023
(lp2024
g159
asVperils
p2025
(lp2026
g85
asVrollins
p2027
(lp2028
g91
asVslant
p2029
(lp2030
g94
asVhelping
p2031
(lp2032
g41
ag94
ag27
asVjourney
p2033
(lp2034
g64
ag64
ag25
ag41
ag41
ag35
ag35
ag91
ag39
ag92
ag33
ag85
ag85
ag27
ag29
ag31
asVfriends
p2035
(lp2036
g94
ag85
ag85
asVneeded
p2037
(lp2038
g27
asVyounger
p2039
(lp2040
g45
asVland
p2041
(lp2042
g94
ag43
asVe
p2043
(lp2044
g93
asVfor
p2045
(lp2046
g25
ag41
ag41
ag35
ag94
ag94
ag94
ag91
ag39
ag33
ag33
ag85
ag85
ag43
ag31
asVwife
p2047
(lp2048
g37
ag43
asVpersistent
p2049
(lp2050
g31
asVlonged
p2051
(lp2052
g35
asVtime
p2053
(lp2054
g39
ag27
asVwoolston
p2055
(lp2056
g94
asVoverseas
p2057
(lp2058
g31
asV2009
p2059
(lp2060
g85
asVhaving
p2061
(lp2062
g37
ag39
assb.